; ModuleID = 'btC.cl'
source_filename = "btC.cl"
target datalayout = "e-m:e-p270:32:32-p271:32:32-p272:64:64-i64:64-f80:128-n8:16:32:64-S128"
target triple = "x86_64-unknown-linux-gnu"

; Function Attrs: convergent nofree norecurse nounwind uwtable
define dso_local spir_kernel void @compute_rhs1(double* nocapture readonly %g_u, double* nocapture %g_us, double* nocapture %g_vs, double* nocapture %g_ws, double* nocapture %g_qs, double* nocapture %g_rho_i, double* nocapture %g_square, i32 %gp0, i32 %gp1, i32 %gp2) local_unnamed_addr #0 !kernel_arg_addr_space !3 !kernel_arg_access_qual !4 !kernel_arg_type !5 !kernel_arg_base_type !5 !kernel_arg_type_qual !6 {
entry:
  %call = tail call i64 @_Z13get_global_idj(i32 2) #6
  %conv = trunc i64 %call to i32
  %call1 = tail call i64 @_Z13get_global_idj(i32 1) #6
  %call3 = tail call i64 @_Z13get_global_idj(i32 0) #6
  %conv4 = trunc i64 %call3 to i32
  %cmp.not = icmp slt i32 %conv, %gp2
  %conv2 = trunc i64 %call1 to i32
  %cmp6.not = icmp slt i32 %conv2, %gp1
  %or.cond = and i1 %cmp.not, %cmp6.not
  %cmp9.not = icmp slt i32 %conv4, %gp0
  %or.cond163 = and i1 %or.cond, %cmp9.not
  br i1 %or.cond163, label %if.end, label %cleanup

if.end:                                           ; preds = %entry
  %0 = bitcast double* %g_u to [163 x [163 x [5 x double]]]*
  %1 = bitcast double* %g_us to [163 x [163 x double]]*
  %2 = bitcast double* %g_vs to [163 x [163 x double]]*
  %3 = bitcast double* %g_ws to [163 x [163 x double]]*
  %4 = bitcast double* %g_qs to [163 x [163 x double]]*
  %5 = bitcast double* %g_rho_i to [163 x [163 x double]]*
  %6 = bitcast double* %g_square to [163 x [163 x double]]*
  %sext = shl i64 %call, 32
  %idxprom = ashr exact i64 %sext, 32
  %sext161 = shl i64 %call1, 32
  %idxprom11 = ashr exact i64 %sext161, 32
  %sext162 = shl i64 %call3, 32
  %idxprom13 = ashr exact i64 %sext162, 32
  %arrayidx15 = getelementptr inbounds [163 x [163 x [5 x double]]], [163 x [163 x [5 x double]]]* %0, i64 %idxprom, i64 %idxprom11, i64 %idxprom13, i64 0
  %7 = load double, double* %arrayidx15, align 8, !tbaa !7
  %arrayidx23 = getelementptr inbounds [163 x [163 x [5 x double]]], [163 x [163 x [5 x double]]]* %0, i64 %idxprom, i64 %idxprom11, i64 %idxprom13, i64 1
  %8 = load double, double* %arrayidx23, align 8, !tbaa !7
  %arrayidx31 = getelementptr inbounds [163 x [163 x [5 x double]]], [163 x [163 x [5 x double]]]* %0, i64 %idxprom, i64 %idxprom11, i64 %idxprom13, i64 2
  %9 = load double, double* %arrayidx31, align 8, !tbaa !7
  %arrayidx39 = getelementptr inbounds [163 x [163 x [5 x double]]], [163 x [163 x [5 x double]]]* %0, i64 %idxprom, i64 %idxprom11, i64 %idxprom13, i64 3
  %10 = load double, double* %arrayidx39, align 8, !tbaa !7
  %div = fdiv double 1.000000e+00, %7
  %arrayidx47 = getelementptr inbounds [163 x [163 x double]], [163 x [163 x double]]* %5, i64 %idxprom, i64 %idxprom11, i64 %idxprom13
  store double %div, double* %arrayidx47, align 8, !tbaa !7
  %mul = fmul double %8, %div
  %arrayidx54 = getelementptr inbounds [163 x [163 x double]], [163 x [163 x double]]* %1, i64 %idxprom, i64 %idxprom11, i64 %idxprom13
  store double %mul, double* %arrayidx54, align 8, !tbaa !7
  %mul56 = fmul double %div, %9
  %arrayidx62 = getelementptr inbounds [163 x [163 x double]], [163 x [163 x double]]* %2, i64 %idxprom, i64 %idxprom11, i64 %idxprom13
  store double %mul56, double* %arrayidx62, align 8, !tbaa !7
  %mul64 = fmul double %div, %10
  %arrayidx70 = getelementptr inbounds [163 x [163 x double]], [163 x [163 x double]]* %3, i64 %idxprom, i64 %idxprom11, i64 %idxprom13
  store double %mul64, double* %arrayidx70, align 8, !tbaa !7
  %mul76 = fmul double %9, %9
  %11 = tail call double @llvm.fmuladd.f64(double %8, double %8, double %mul76)
  %12 = tail call double @llvm.fmuladd.f64(double %10, double %10, double %11)
  %mul80 = fmul double %12, 5.000000e-01
  %mul81 = fmul double %div, %mul80
  %arrayidx87 = getelementptr inbounds [163 x [163 x double]], [163 x [163 x double]]* %6, i64 %idxprom, i64 %idxprom11, i64 %idxprom13
  store double %mul81, double* %arrayidx87, align 8, !tbaa !7
  %mul88 = fmul double %div, %mul81
  %arrayidx94 = getelementptr inbounds [163 x [163 x double]], [163 x [163 x double]]* %4, i64 %idxprom, i64 %idxprom11, i64 %idxprom13
  store double %mul88, double* %arrayidx94, align 8, !tbaa !7
  br label %cleanup

cleanup:                                          ; preds = %entry, %if.end
  ret void
}

; Function Attrs: argmemonly nofree nosync nounwind willreturn
declare void @llvm.lifetime.start.p0i8(i64 immarg, i8* nocapture) #1

; Function Attrs: convergent nounwind readnone
declare dso_local i64 @_Z13get_global_idj(i32) local_unnamed_addr #2

; Function Attrs: nofree nosync nounwind readnone speculatable willreturn
declare double @llvm.fmuladd.f64(double, double, double) #3

; Function Attrs: argmemonly nofree nosync nounwind willreturn
declare void @llvm.lifetime.end.p0i8(i64 immarg, i8* nocapture) #1

; Function Attrs: convergent nofree norecurse nounwind uwtable
define dso_local spir_kernel void @compute_rhs2(double* nocapture readonly %g_forcing, double* nocapture %g_rhs, i32 %gp0, i32 %gp1, i32 %gp2) local_unnamed_addr #0 !kernel_arg_addr_space !11 !kernel_arg_access_qual !12 !kernel_arg_type !13 !kernel_arg_base_type !13 !kernel_arg_type_qual !14 {
entry:
  %call = tail call i64 @_Z13get_global_idj(i32 2) #6
  %conv = trunc i64 %call to i32
  %call1 = tail call i64 @_Z13get_global_idj(i32 1) #6
  %call3 = tail call i64 @_Z13get_global_idj(i32 0) #6
  %conv4 = trunc i64 %call3 to i32
  %cmp.not = icmp slt i32 %conv, %gp2
  %conv2 = trunc i64 %call1 to i32
  %cmp6.not = icmp slt i32 %conv2, %gp1
  %or.cond = and i1 %cmp.not, %cmp6.not
  %cmp9.not = icmp slt i32 %conv4, %gp0
  %or.cond47 = and i1 %or.cond, %cmp9.not
  br i1 %or.cond47, label %if.end, label %cleanup

if.end:                                           ; preds = %entry
  %0 = bitcast double* %g_forcing to [163 x [163 x [5 x double]]]*
  %1 = bitcast double* %g_rhs to [163 x [163 x [5 x double]]]*
  %sext = shl i64 %call, 32
  %idxprom = ashr exact i64 %sext, 32
  %sext45 = shl i64 %call1, 32
  %idxprom13 = ashr exact i64 %sext45, 32
  %sext46 = shl i64 %call3, 32
  %idxprom15 = ashr exact i64 %sext46, 32
  %arrayidx18 = getelementptr inbounds [163 x [163 x [5 x double]]], [163 x [163 x [5 x double]]]* %0, i64 %idxprom, i64 %idxprom13, i64 %idxprom15, i64 0
  %2 = load double, double* %arrayidx18, align 8, !tbaa !7
  %arrayidx26 = getelementptr inbounds [163 x [163 x [5 x double]]], [163 x [163 x [5 x double]]]* %1, i64 %idxprom, i64 %idxprom13, i64 %idxprom15, i64 0
  store double %2, double* %arrayidx26, align 8, !tbaa !7
  %arrayidx18.1 = getelementptr inbounds [163 x [163 x [5 x double]]], [163 x [163 x [5 x double]]]* %0, i64 %idxprom, i64 %idxprom13, i64 %idxprom15, i64 1
  %3 = load double, double* %arrayidx18.1, align 8, !tbaa !7
  %arrayidx26.1 = getelementptr inbounds [163 x [163 x [5 x double]]], [163 x [163 x [5 x double]]]* %1, i64 %idxprom, i64 %idxprom13, i64 %idxprom15, i64 1
  store double %3, double* %arrayidx26.1, align 8, !tbaa !7
  %arrayidx18.2 = getelementptr inbounds [163 x [163 x [5 x double]]], [163 x [163 x [5 x double]]]* %0, i64 %idxprom, i64 %idxprom13, i64 %idxprom15, i64 2
  %4 = load double, double* %arrayidx18.2, align 8, !tbaa !7
  %arrayidx26.2 = getelementptr inbounds [163 x [163 x [5 x double]]], [163 x [163 x [5 x double]]]* %1, i64 %idxprom, i64 %idxprom13, i64 %idxprom15, i64 2
  store double %4, double* %arrayidx26.2, align 8, !tbaa !7
  %arrayidx18.3 = getelementptr inbounds [163 x [163 x [5 x double]]], [163 x [163 x [5 x double]]]* %0, i64 %idxprom, i64 %idxprom13, i64 %idxprom15, i64 3
  %5 = load double, double* %arrayidx18.3, align 8, !tbaa !7
  %arrayidx26.3 = getelementptr inbounds [163 x [163 x [5 x double]]], [163 x [163 x [5 x double]]]* %1, i64 %idxprom, i64 %idxprom13, i64 %idxprom15, i64 3
  store double %5, double* %arrayidx26.3, align 8, !tbaa !7
  %arrayidx18.4 = getelementptr inbounds [163 x [163 x [5 x double]]], [163 x [163 x [5 x double]]]* %0, i64 %idxprom, i64 %idxprom13, i64 %idxprom15, i64 4
  %6 = load double, double* %arrayidx18.4, align 8, !tbaa !7
  %arrayidx26.4 = getelementptr inbounds [163 x [163 x [5 x double]]], [163 x [163 x [5 x double]]]* %1, i64 %idxprom, i64 %idxprom13, i64 %idxprom15, i64 4
  store double %6, double* %arrayidx26.4, align 8, !tbaa !7
  br label %cleanup

cleanup:                                          ; preds = %if.end, %entry
  ret void
}

; Function Attrs: convergent nofree norecurse nounwind uwtable
define dso_local spir_kernel void @compute_rhs3(double* readonly %g_u, double* nocapture readonly %g_us, double* nocapture readonly %g_vs, double* nocapture readonly %g_ws, double* nocapture readonly %g_qs, double* nocapture readonly %g_rho_i, double* nocapture readonly %g_square, double* %g_rhs, i32 %gp0, i32 %gp1, i32 %gp2) local_unnamed_addr #0 !kernel_arg_addr_space !15 !kernel_arg_access_qual !16 !kernel_arg_type !17 !kernel_arg_base_type !17 !kernel_arg_type_qual !18 {
entry:
  %call = tail call i64 @_Z13get_global_idj(i32 1) #6
  %0 = trunc i64 %call to i32
  %conv = add i32 %0, 1
  %call1 = tail call i64 @_Z13get_global_idj(i32 0) #6
  %1 = trunc i64 %call1 to i32
  %conv3 = add i32 %1, 1
  %sub = add nsw i32 %gp2, -2
  %cmp = icmp sgt i32 %conv, %sub
  %sub5 = add nsw i32 %gp1, -2
  %cmp6 = icmp sgt i32 %conv3, %sub5
  %or.cond = or i1 %cmp, %cmp6
  br i1 %or.cond, label %cleanup, label %if.end

if.end:                                           ; preds = %entry
  %2 = bitcast double* %g_us to [163 x [163 x double]]*
  %3 = bitcast double* %g_vs to [163 x [163 x double]]*
  %4 = bitcast double* %g_ws to [163 x [163 x double]]*
  %5 = bitcast double* %g_qs to [163 x [163 x double]]*
  %6 = bitcast double* %g_rho_i to [163 x [163 x double]]*
  %7 = bitcast double* %g_square to [163 x [163 x double]]*
  %8 = bitcast double* %g_u to [163 x [163 x [5 x double]]]*
  %9 = bitcast double* %g_rhs to [163 x [163 x [5 x double]]]*
  %idxprom = sext i32 %conv to i64
  %idxprom8 = sext i32 %conv3 to i64
  %arrayidx11 = getelementptr inbounds [163 x [163 x [5 x double]]], [163 x [163 x [5 x double]]]* %8, i64 %idxprom, i64 %idxprom8, i64 0, i64 0
  %10 = load double, double* %arrayidx11, align 8, !tbaa !7
  %arrayidx18 = getelementptr inbounds [163 x [163 x [5 x double]]], [163 x [163 x [5 x double]]]* %8, i64 %idxprom, i64 %idxprom8, i64 0, i64 1
  %11 = load double, double* %arrayidx18, align 8, !tbaa !7
  %arrayidx25 = getelementptr inbounds [163 x [163 x [5 x double]]], [163 x [163 x [5 x double]]]* %8, i64 %idxprom, i64 %idxprom8, i64 0, i64 2
  %12 = load double, double* %arrayidx25, align 8, !tbaa !7
  %arrayidx32 = getelementptr inbounds [163 x [163 x [5 x double]]], [163 x [163 x [5 x double]]]* %8, i64 %idxprom, i64 %idxprom8, i64 0, i64 3
  %13 = load double, double* %arrayidx32, align 8, !tbaa !7
  %arrayidx39 = getelementptr inbounds [163 x [163 x [5 x double]]], [163 x [163 x [5 x double]]]* %8, i64 %idxprom, i64 %idxprom8, i64 0, i64 4
  %14 = load double, double* %arrayidx39, align 8, !tbaa !7
  %arrayidx46 = getelementptr inbounds [163 x [163 x [5 x double]]], [163 x [163 x [5 x double]]]* %8, i64 %idxprom, i64 %idxprom8, i64 1, i64 0
  %15 = load double, double* %arrayidx46, align 8, !tbaa !7
  %arrayidx53 = getelementptr inbounds [163 x [163 x [5 x double]]], [163 x [163 x [5 x double]]]* %8, i64 %idxprom, i64 %idxprom8, i64 1, i64 1
  %16 = load double, double* %arrayidx53, align 8, !tbaa !7
  %arrayidx60 = getelementptr inbounds [163 x [163 x [5 x double]]], [163 x [163 x [5 x double]]]* %8, i64 %idxprom, i64 %idxprom8, i64 1, i64 2
  %17 = load double, double* %arrayidx60, align 8, !tbaa !7
  %arrayidx67 = getelementptr inbounds [163 x [163 x [5 x double]]], [163 x [163 x [5 x double]]]* %8, i64 %idxprom, i64 %idxprom8, i64 1, i64 3
  %18 = load double, double* %arrayidx67, align 8, !tbaa !7
  %arrayidx74 = getelementptr inbounds [163 x [163 x [5 x double]]], [163 x [163 x [5 x double]]]* %8, i64 %idxprom, i64 %idxprom8, i64 1, i64 4
  %19 = load double, double* %arrayidx74, align 8, !tbaa !7
  %arrayidx81 = getelementptr inbounds [163 x [163 x [5 x double]]], [163 x [163 x [5 x double]]]* %8, i64 %idxprom, i64 %idxprom8, i64 2, i64 0
  %20 = load double, double* %arrayidx81, align 8, !tbaa !7
  %arrayidx88 = getelementptr inbounds [163 x [163 x [5 x double]]], [163 x [163 x [5 x double]]]* %8, i64 %idxprom, i64 %idxprom8, i64 2, i64 1
  %21 = load double, double* %arrayidx88, align 8, !tbaa !7
  %arrayidx95 = getelementptr inbounds [163 x [163 x [5 x double]]], [163 x [163 x [5 x double]]]* %8, i64 %idxprom, i64 %idxprom8, i64 2, i64 2
  %22 = load double, double* %arrayidx95, align 8, !tbaa !7
  %arrayidx102 = getelementptr inbounds [163 x [163 x [5 x double]]], [163 x [163 x [5 x double]]]* %8, i64 %idxprom, i64 %idxprom8, i64 2, i64 3
  %23 = load double, double* %arrayidx102, align 8, !tbaa !7
  %arrayidx109 = getelementptr inbounds [163 x [163 x [5 x double]]], [163 x [163 x [5 x double]]]* %8, i64 %idxprom, i64 %idxprom8, i64 2, i64 4
  %24 = load double, double* %arrayidx109, align 8, !tbaa !7
  %arrayidx115 = getelementptr inbounds [163 x [163 x double]], [163 x [163 x double]]* %2, i64 %idxprom, i64 %idxprom8, i64 0
  %25 = load double, double* %arrayidx115, align 8, !tbaa !7
  %arrayidx120 = getelementptr inbounds [163 x [163 x double]], [163 x [163 x double]]* %2, i64 %idxprom, i64 %idxprom8, i64 1
  %26 = load double, double* %arrayidx120, align 8, !tbaa !7
  %arrayidx125 = getelementptr inbounds [163 x [163 x double]], [163 x [163 x double]]* %3, i64 %idxprom, i64 %idxprom8, i64 0
  %27 = load double, double* %arrayidx125, align 8, !tbaa !7
  %arrayidx130 = getelementptr inbounds [163 x [163 x double]], [163 x [163 x double]]* %3, i64 %idxprom, i64 %idxprom8, i64 1
  %28 = load double, double* %arrayidx130, align 8, !tbaa !7
  %arrayidx135 = getelementptr inbounds [163 x [163 x double]], [163 x [163 x double]]* %4, i64 %idxprom, i64 %idxprom8, i64 0
  %29 = load double, double* %arrayidx135, align 8, !tbaa !7
  %arrayidx140 = getelementptr inbounds [163 x [163 x double]], [163 x [163 x double]]* %4, i64 %idxprom, i64 %idxprom8, i64 1
  %30 = load double, double* %arrayidx140, align 8, !tbaa !7
  %arrayidx145 = getelementptr inbounds [163 x [163 x double]], [163 x [163 x double]]* %5, i64 %idxprom, i64 %idxprom8, i64 0
  %31 = load double, double* %arrayidx145, align 8, !tbaa !7
  %arrayidx150 = getelementptr inbounds [163 x [163 x double]], [163 x [163 x double]]* %5, i64 %idxprom, i64 %idxprom8, i64 1
  %32 = load double, double* %arrayidx150, align 8, !tbaa !7
  %arrayidx155 = getelementptr inbounds [163 x [163 x double]], [163 x [163 x double]]* %6, i64 %idxprom, i64 %idxprom8, i64 0
  %33 = load double, double* %arrayidx155, align 8, !tbaa !7
  %arrayidx160 = getelementptr inbounds [163 x [163 x double]], [163 x [163 x double]]* %6, i64 %idxprom, i64 %idxprom8, i64 1
  %34 = load double, double* %arrayidx160, align 8, !tbaa !7
  %arrayidx165 = getelementptr inbounds [163 x [163 x double]], [163 x [163 x double]]* %7, i64 %idxprom, i64 %idxprom8, i64 0
  %35 = load double, double* %arrayidx165, align 8, !tbaa !7
  %arrayidx170 = getelementptr inbounds [163 x [163 x double]], [163 x [163 x double]]* %7, i64 %idxprom, i64 %idxprom8, i64 1
  %36 = load double, double* %arrayidx170, align 8, !tbaa !7
  %arrayidx218 = getelementptr inbounds [163 x [163 x [5 x double]]], [163 x [163 x [5 x double]]]* %8, i64 %idxprom, i64 %idxprom8, i64 3, i64 0
  %37 = load double, double* %arrayidx218, align 8, !tbaa !7
  %arrayidx227 = getelementptr inbounds [163 x [163 x [5 x double]]], [163 x [163 x [5 x double]]]* %8, i64 %idxprom, i64 %idxprom8, i64 3, i64 1
  %38 = load double, double* %arrayidx227, align 8, !tbaa !7
  %arrayidx236 = getelementptr inbounds [163 x [163 x [5 x double]]], [163 x [163 x [5 x double]]]* %8, i64 %idxprom, i64 %idxprom8, i64 3, i64 2
  %39 = load double, double* %arrayidx236, align 8, !tbaa !7
  %arrayidx245 = getelementptr inbounds [163 x [163 x [5 x double]]], [163 x [163 x [5 x double]]]* %8, i64 %idxprom, i64 %idxprom8, i64 3, i64 3
  %40 = load double, double* %arrayidx245, align 8, !tbaa !7
  %arrayidx254 = getelementptr inbounds [163 x [163 x [5 x double]]], [163 x [163 x [5 x double]]]* %8, i64 %idxprom, i64 %idxprom8, i64 3, i64 4
  %41 = load double, double* %arrayidx254, align 8, !tbaa !7
  %arrayidx262 = getelementptr inbounds [163 x [163 x double]], [163 x [163 x double]]* %2, i64 %idxprom, i64 %idxprom8, i64 2
  %42 = load double, double* %arrayidx262, align 8, !tbaa !7
  %arrayidx269 = getelementptr inbounds [163 x [163 x double]], [163 x [163 x double]]* %3, i64 %idxprom, i64 %idxprom8, i64 2
  %43 = load double, double* %arrayidx269, align 8, !tbaa !7
  %arrayidx276 = getelementptr inbounds [163 x [163 x double]], [163 x [163 x double]]* %4, i64 %idxprom, i64 %idxprom8, i64 2
  %44 = load double, double* %arrayidx276, align 8, !tbaa !7
  %arrayidx283 = getelementptr inbounds [163 x [163 x double]], [163 x [163 x double]]* %5, i64 %idxprom, i64 %idxprom8, i64 2
  %45 = load double, double* %arrayidx283, align 8, !tbaa !7
  %arrayidx290 = getelementptr inbounds [163 x [163 x double]], [163 x [163 x double]]* %6, i64 %idxprom, i64 %idxprom8, i64 2
  %46 = load double, double* %arrayidx290, align 8, !tbaa !7
  %arrayidx297 = getelementptr inbounds [163 x [163 x double]], [163 x [163 x double]]* %7, i64 %idxprom, i64 %idxprom8, i64 2
  %47 = load double, double* %arrayidx297, align 8, !tbaa !7
  %arrayidx304 = getelementptr inbounds [163 x [163 x [5 x double]]], [163 x [163 x [5 x double]]]* %9, i64 %idxprom, i64 %idxprom8, i64 1, i64 0
  %48 = load double, double* %arrayidx304, align 8, !tbaa !7
  %49 = tail call double @llvm.fmuladd.f64(double %15, double -2.000000e+00, double %20)
  %add308 = fadd double %10, %49
  %50 = tail call double @llvm.fmuladd.f64(double %add308, double 0x40D2FC3000000001, double %48)
  %sub311 = fsub double %21, %11
  %51 = tail call double @llvm.fmuladd.f64(double %sub311, double -8.050000e+01, double %50)
  %arrayidx319 = getelementptr inbounds [163 x [163 x [5 x double]]], [163 x [163 x [5 x double]]]* %9, i64 %idxprom, i64 %idxprom8, i64 1, i64 1
  %52 = load double, double* %arrayidx319, align 8, !tbaa !7
  %53 = tail call double @llvm.fmuladd.f64(double %16, double -2.000000e+00, double %21)
  %add323 = fadd double %11, %53
  %54 = tail call double @llvm.fmuladd.f64(double %add323, double 0x40D2FC3000000001, double %52)
  %55 = tail call double @llvm.fmuladd.f64(double %26, double -2.000000e+00, double %42)
  %add324 = fadd double %25, %55
  %56 = tail call double @llvm.fmuladd.f64(double %add324, double 0x40AB004444444445, double %54)
  %57 = fneg double %11
  %neg = fmul double %25, %57
  %58 = tail call double @llvm.fmuladd.f64(double %21, double %42, double %neg)
  %sub329 = fsub double %24, %47
  %sub331 = fsub double %sub329, %14
  %add332 = fadd double %35, %sub331
  %59 = tail call double @llvm.fmuladd.f64(double %add332, double 4.000000e-01, double %58)
  %60 = tail call double @llvm.fmuladd.f64(double %59, double -8.050000e+01, double %56)
  %arrayidx340 = getelementptr inbounds [163 x [163 x [5 x double]]], [163 x [163 x [5 x double]]]* %9, i64 %idxprom, i64 %idxprom8, i64 1, i64 2
  %61 = load double, double* %arrayidx340, align 8, !tbaa !7
  %62 = tail call double @llvm.fmuladd.f64(double %17, double -2.000000e+00, double %22)
  %add344 = fadd double %12, %62
  %63 = tail call double @llvm.fmuladd.f64(double %add344, double 0x40D2FC3000000001, double %61)
  %64 = tail call double @llvm.fmuladd.f64(double %28, double -2.000000e+00, double %43)
  %add345 = fadd double %27, %64
  %65 = tail call double @llvm.fmuladd.f64(double %add345, double 0x40A4403333333334, double %63)
  %66 = fneg double %12
  %neg349 = fmul double %25, %66
  %67 = tail call double @llvm.fmuladd.f64(double %22, double %42, double %neg349)
  %68 = tail call double @llvm.fmuladd.f64(double %67, double -8.050000e+01, double %65)
  %arrayidx357 = getelementptr inbounds [163 x [163 x [5 x double]]], [163 x [163 x [5 x double]]]* %9, i64 %idxprom, i64 %idxprom8, i64 1, i64 3
  %69 = load double, double* %arrayidx357, align 8, !tbaa !7
  %70 = tail call double @llvm.fmuladd.f64(double %18, double -2.000000e+00, double %23)
  %add361 = fadd double %13, %70
  %71 = tail call double @llvm.fmuladd.f64(double %add361, double 0x40D2FC3000000001, double %69)
  %72 = tail call double @llvm.fmuladd.f64(double %30, double -2.000000e+00, double %44)
  %add362 = fadd double %29, %72
  %73 = tail call double @llvm.fmuladd.f64(double %add362, double 0x40A4403333333334, double %71)
  %74 = fneg double %13
  %neg366 = fmul double %25, %74
  %75 = tail call double @llvm.fmuladd.f64(double %23, double %42, double %neg366)
  %76 = tail call double @llvm.fmuladd.f64(double %75, double -8.050000e+01, double %73)
  %arrayidx374 = getelementptr inbounds [163 x [163 x [5 x double]]], [163 x [163 x [5 x double]]]* %9, i64 %idxprom, i64 %idxprom8, i64 1, i64 4
  %77 = load double, double* %arrayidx374, align 8, !tbaa !7
  %78 = tail call double @llvm.fmuladd.f64(double %19, double -2.000000e+00, double %24)
  %add378 = fadd double %14, %78
  %79 = tail call double @llvm.fmuladd.f64(double %add378, double 0x40D2FC3000000001, double %77)
  %80 = tail call double @llvm.fmuladd.f64(double %32, double -2.000000e+00, double %45)
  %add379 = fadd double %31, %80
  %81 = tail call double @llvm.fmuladd.f64(double %add379, double 0xC0A370D4FDF3B645, double %79)
  %82 = fmul double %26, -2.000000e+00
  %neg382 = fmul double %26, %82
  %83 = tail call double @llvm.fmuladd.f64(double %42, double %42, double %neg382)
  %84 = tail call double @llvm.fmuladd.f64(double %25, double %25, double %83)
  %85 = tail call double @llvm.fmuladd.f64(double %84, double 0x407B004444444445, double %81)
  %86 = fmul double %19, -2.000000e+00
  %neg387 = fmul double %86, %34
  %87 = tail call double @llvm.fmuladd.f64(double %24, double %46, double %neg387)
  %88 = tail call double @llvm.fmuladd.f64(double %14, double %33, double %87)
  %89 = tail call double @llvm.fmuladd.f64(double %88, double 0x40B3D884189374BC, double %85)
  %neg391 = fmul double %47, -4.000000e-01
  %90 = tail call double @llvm.fmuladd.f64(double %24, double 1.400000e+00, double %neg391)
  %neg395 = fmul double %35, -4.000000e-01
  %91 = tail call double @llvm.fmuladd.f64(double %14, double 1.400000e+00, double %neg395)
  %92 = fneg double %91
  %neg397 = fmul double %25, %92
  %93 = tail call double @llvm.fmuladd.f64(double %90, double %42, double %neg397)
  %94 = tail call double @llvm.fmuladd.f64(double %93, double -8.050000e+01, double %89)
  %neg408 = fmul double %20, -4.000000e+00
  %95 = tail call double @llvm.fmuladd.f64(double %15, double 5.000000e+00, double %neg408)
  %add411 = fadd double %37, %95
  %96 = tail call double @llvm.fmuladd.f64(double %add411, double -2.500000e-01, double %51)
  store double %96, double* %arrayidx304, align 8, !tbaa !7
  %neg408.1 = fmul double %21, -4.000000e+00
  %97 = tail call double @llvm.fmuladd.f64(double %16, double 5.000000e+00, double %neg408.1)
  %add411.1 = fadd double %38, %97
  %98 = tail call double @llvm.fmuladd.f64(double %add411.1, double -2.500000e-01, double %60)
  store double %98, double* %arrayidx319, align 8, !tbaa !7
  %neg408.2 = fmul double %22, -4.000000e+00
  %99 = tail call double @llvm.fmuladd.f64(double %17, double 5.000000e+00, double %neg408.2)
  %add411.2 = fadd double %39, %99
  %100 = tail call double @llvm.fmuladd.f64(double %add411.2, double -2.500000e-01, double %68)
  store double %100, double* %arrayidx340, align 8, !tbaa !7
  %neg408.3 = fmul double %23, -4.000000e+00
  %101 = tail call double @llvm.fmuladd.f64(double %18, double 5.000000e+00, double %neg408.3)
  %add411.3 = fadd double %40, %101
  %102 = tail call double @llvm.fmuladd.f64(double %add411.3, double -2.500000e-01, double %76)
  store double %102, double* %arrayidx357, align 8, !tbaa !7
  %neg408.4 = fmul double %24, -4.000000e+00
  %103 = tail call double @llvm.fmuladd.f64(double %19, double 5.000000e+00, double %neg408.4)
  %add411.4 = fadd double %41, %103
  %104 = tail call double @llvm.fmuladd.f64(double %add411.4, double -2.500000e-01, double %94)
  store double %104, double* %arrayidx374, align 8, !tbaa !7
  %arrayidx467 = getelementptr inbounds [163 x [163 x [5 x double]]], [163 x [163 x [5 x double]]]* %8, i64 %idxprom, i64 %idxprom8, i64 4, i64 0
  %105 = load double, double* %arrayidx467, align 8, !tbaa !7
  %arrayidx476 = getelementptr inbounds [163 x [163 x [5 x double]]], [163 x [163 x [5 x double]]]* %8, i64 %idxprom, i64 %idxprom8, i64 4, i64 1
  %106 = load double, double* %arrayidx476, align 8, !tbaa !7
  %arrayidx485 = getelementptr inbounds [163 x [163 x [5 x double]]], [163 x [163 x [5 x double]]]* %8, i64 %idxprom, i64 %idxprom8, i64 4, i64 2
  %107 = load double, double* %arrayidx485, align 8, !tbaa !7
  %arrayidx494 = getelementptr inbounds [163 x [163 x [5 x double]]], [163 x [163 x [5 x double]]]* %8, i64 %idxprom, i64 %idxprom8, i64 4, i64 3
  %108 = load double, double* %arrayidx494, align 8, !tbaa !7
  %arrayidx503 = getelementptr inbounds [163 x [163 x [5 x double]]], [163 x [163 x [5 x double]]]* %8, i64 %idxprom, i64 %idxprom8, i64 4, i64 4
  %109 = load double, double* %arrayidx503, align 8, !tbaa !7
  %arrayidx511 = getelementptr inbounds [163 x [163 x double]], [163 x [163 x double]]* %2, i64 %idxprom, i64 %idxprom8, i64 3
  %110 = load double, double* %arrayidx511, align 8, !tbaa !7
  %arrayidx518 = getelementptr inbounds [163 x [163 x double]], [163 x [163 x double]]* %3, i64 %idxprom, i64 %idxprom8, i64 3
  %111 = load double, double* %arrayidx518, align 8, !tbaa !7
  %arrayidx525 = getelementptr inbounds [163 x [163 x double]], [163 x [163 x double]]* %4, i64 %idxprom, i64 %idxprom8, i64 3
  %112 = load double, double* %arrayidx525, align 8, !tbaa !7
  %arrayidx532 = getelementptr inbounds [163 x [163 x double]], [163 x [163 x double]]* %5, i64 %idxprom, i64 %idxprom8, i64 3
  %113 = load double, double* %arrayidx532, align 8, !tbaa !7
  %arrayidx539 = getelementptr inbounds [163 x [163 x double]], [163 x [163 x double]]* %6, i64 %idxprom, i64 %idxprom8, i64 3
  %114 = load double, double* %arrayidx539, align 8, !tbaa !7
  %arrayidx546 = getelementptr inbounds [163 x [163 x double]], [163 x [163 x double]]* %7, i64 %idxprom, i64 %idxprom8, i64 3
  %115 = load double, double* %arrayidx546, align 8, !tbaa !7
  %arrayidx553 = getelementptr inbounds [163 x [163 x [5 x double]]], [163 x [163 x [5 x double]]]* %9, i64 %idxprom, i64 %idxprom8, i64 2, i64 0
  %116 = load double, double* %arrayidx553, align 8, !tbaa !7
  %117 = tail call double @llvm.fmuladd.f64(double %20, double -2.000000e+00, double %37)
  %add557 = fadd double %15, %117
  %118 = tail call double @llvm.fmuladd.f64(double %add557, double 0x40D2FC3000000001, double %116)
  %sub560 = fsub double %38, %16
  %119 = tail call double @llvm.fmuladd.f64(double %sub560, double -8.050000e+01, double %118)
  %arrayidx568 = getelementptr inbounds [163 x [163 x [5 x double]]], [163 x [163 x [5 x double]]]* %9, i64 %idxprom, i64 %idxprom8, i64 2, i64 1
  %120 = load double, double* %arrayidx568, align 8, !tbaa !7
  %121 = tail call double @llvm.fmuladd.f64(double %21, double -2.000000e+00, double %38)
  %add572 = fadd double %16, %121
  %122 = tail call double @llvm.fmuladd.f64(double %add572, double 0x40D2FC3000000001, double %120)
  %123 = tail call double @llvm.fmuladd.f64(double %42, double -2.000000e+00, double %110)
  %add573 = fadd double %26, %123
  %124 = tail call double @llvm.fmuladd.f64(double %add573, double 0x40AB004444444445, double %122)
  %125 = fneg double %16
  %neg577 = fmul double %26, %125
  %126 = tail call double @llvm.fmuladd.f64(double %38, double %110, double %neg577)
  %sub579 = fsub double %41, %115
  %sub581 = fsub double %sub579, %19
  %add582 = fadd double %36, %sub581
  %127 = tail call double @llvm.fmuladd.f64(double %add582, double 4.000000e-01, double %126)
  %128 = tail call double @llvm.fmuladd.f64(double %127, double -8.050000e+01, double %124)
  %arrayidx590 = getelementptr inbounds [163 x [163 x [5 x double]]], [163 x [163 x [5 x double]]]* %9, i64 %idxprom, i64 %idxprom8, i64 2, i64 2
  %129 = load double, double* %arrayidx590, align 8, !tbaa !7
  %130 = tail call double @llvm.fmuladd.f64(double %22, double -2.000000e+00, double %39)
  %add594 = fadd double %17, %130
  %131 = tail call double @llvm.fmuladd.f64(double %add594, double 0x40D2FC3000000001, double %129)
  %132 = tail call double @llvm.fmuladd.f64(double %43, double -2.000000e+00, double %111)
  %add595 = fadd double %28, %132
  %133 = tail call double @llvm.fmuladd.f64(double %add595, double 0x40A4403333333334, double %131)
  %134 = fneg double %17
  %neg599 = fmul double %26, %134
  %135 = tail call double @llvm.fmuladd.f64(double %39, double %110, double %neg599)
  %136 = tail call double @llvm.fmuladd.f64(double %135, double -8.050000e+01, double %133)
  %arrayidx607 = getelementptr inbounds [163 x [163 x [5 x double]]], [163 x [163 x [5 x double]]]* %9, i64 %idxprom, i64 %idxprom8, i64 2, i64 3
  %137 = load double, double* %arrayidx607, align 8, !tbaa !7
  %138 = tail call double @llvm.fmuladd.f64(double %23, double -2.000000e+00, double %40)
  %add611 = fadd double %18, %138
  %139 = tail call double @llvm.fmuladd.f64(double %add611, double 0x40D2FC3000000001, double %137)
  %140 = tail call double @llvm.fmuladd.f64(double %44, double -2.000000e+00, double %112)
  %add612 = fadd double %30, %140
  %141 = tail call double @llvm.fmuladd.f64(double %add612, double 0x40A4403333333334, double %139)
  %142 = fneg double %18
  %neg616 = fmul double %26, %142
  %143 = tail call double @llvm.fmuladd.f64(double %40, double %110, double %neg616)
  %144 = tail call double @llvm.fmuladd.f64(double %143, double -8.050000e+01, double %141)
  %arrayidx624 = getelementptr inbounds [163 x [163 x [5 x double]]], [163 x [163 x [5 x double]]]* %9, i64 %idxprom, i64 %idxprom8, i64 2, i64 4
  %145 = load double, double* %arrayidx624, align 8, !tbaa !7
  %146 = tail call double @llvm.fmuladd.f64(double %24, double -2.000000e+00, double %41)
  %add628 = fadd double %19, %146
  %147 = tail call double @llvm.fmuladd.f64(double %add628, double 0x40D2FC3000000001, double %145)
  %148 = tail call double @llvm.fmuladd.f64(double %45, double -2.000000e+00, double %113)
  %add629 = fadd double %32, %148
  %149 = tail call double @llvm.fmuladd.f64(double %add629, double 0xC0A370D4FDF3B645, double %147)
  %150 = fmul double %42, -2.000000e+00
  %neg632 = fmul double %42, %150
  %151 = tail call double @llvm.fmuladd.f64(double %110, double %110, double %neg632)
  %152 = tail call double @llvm.fmuladd.f64(double %26, double %26, double %151)
  %153 = tail call double @llvm.fmuladd.f64(double %152, double 0x407B004444444445, double %149)
  %154 = fmul double %24, -2.000000e+00
  %neg637 = fmul double %154, %46
  %155 = tail call double @llvm.fmuladd.f64(double %41, double %114, double %neg637)
  %156 = tail call double @llvm.fmuladd.f64(double %19, double %34, double %155)
  %157 = tail call double @llvm.fmuladd.f64(double %156, double 0x40B3D884189374BC, double %153)
  %neg641 = fmul double %115, -4.000000e-01
  %158 = tail call double @llvm.fmuladd.f64(double %41, double 1.400000e+00, double %neg641)
  %neg645 = fmul double %36, -4.000000e-01
  %159 = tail call double @llvm.fmuladd.f64(double %19, double 1.400000e+00, double %neg645)
  %160 = fneg double %159
  %neg647 = fmul double %26, %160
  %161 = tail call double @llvm.fmuladd.f64(double %158, double %110, double %neg647)
  %162 = tail call double @llvm.fmuladd.f64(double %161, double -8.050000e+01, double %157)
  %mul659 = fmul double %20, 6.000000e+00
  %163 = tail call double @llvm.fmuladd.f64(double %15, double -4.000000e+00, double %mul659)
  %164 = tail call double @llvm.fmuladd.f64(double %37, double -4.000000e+00, double %163)
  %add664 = fadd double %105, %164
  %165 = tail call double @llvm.fmuladd.f64(double %add664, double -2.500000e-01, double %119)
  store double %165, double* %arrayidx553, align 8, !tbaa !7
  %mul659.1 = fmul double %21, 6.000000e+00
  %166 = tail call double @llvm.fmuladd.f64(double %16, double -4.000000e+00, double %mul659.1)
  %167 = tail call double @llvm.fmuladd.f64(double %38, double -4.000000e+00, double %166)
  %add664.1 = fadd double %106, %167
  %168 = tail call double @llvm.fmuladd.f64(double %add664.1, double -2.500000e-01, double %128)
  store double %168, double* %arrayidx568, align 8, !tbaa !7
  %mul659.2 = fmul double %22, 6.000000e+00
  %169 = tail call double @llvm.fmuladd.f64(double %17, double -4.000000e+00, double %mul659.2)
  %170 = tail call double @llvm.fmuladd.f64(double %39, double -4.000000e+00, double %169)
  %add664.2 = fadd double %107, %170
  %171 = tail call double @llvm.fmuladd.f64(double %add664.2, double -2.500000e-01, double %136)
  store double %171, double* %arrayidx590, align 8, !tbaa !7
  %mul659.3 = fmul double %23, 6.000000e+00
  %172 = tail call double @llvm.fmuladd.f64(double %18, double -4.000000e+00, double %mul659.3)
  %173 = tail call double @llvm.fmuladd.f64(double %40, double -4.000000e+00, double %172)
  %add664.3 = fadd double %108, %173
  %174 = tail call double @llvm.fmuladd.f64(double %add664.3, double -2.500000e-01, double %144)
  store double %174, double* %arrayidx607, align 8, !tbaa !7
  %mul659.4 = fmul double %24, 6.000000e+00
  %175 = tail call double @llvm.fmuladd.f64(double %19, double -4.000000e+00, double %mul659.4)
  %176 = tail call double @llvm.fmuladd.f64(double %41, double -4.000000e+00, double %175)
  %add664.4 = fadd double %109, %176
  %177 = tail call double @llvm.fmuladd.f64(double %add664.4, double -2.500000e-01, double %162)
  store double %177, double* %arrayidx624, align 8, !tbaa !7
  %cmp678.not2105 = icmp slt i32 %gp0, 7
  %.pre2323 = add nsw i32 %gp0, -3
  br i1 %cmp678.not2105, label %for.end940, label %for.body680.preheader

for.body680.preheader:                            ; preds = %if.end
  %wide.trip.count = zext i32 %.pre2323 to i64
  br label %for.body680

for.body680:                                      ; preds = %for.body680.preheader, %for.body680
  %p_u.sroa.54.0 = phi double [ %24, %for.body680.preheader ], [ %p_up1.sroa.50.0, %for.body680 ]
  %p_u.sroa.41.0 = phi double [ %23, %for.body680.preheader ], [ %p_up1.sroa.38.0, %for.body680 ]
  %p_u.sroa.28.0 = phi double [ %22, %for.body680.preheader ], [ %p_up1.sroa.26.0, %for.body680 ]
  %p_u.sroa.15.0 = phi double [ %21, %for.body680.preheader ], [ %p_up1.sroa.14.0, %for.body680 ]
  %p_u.sroa.0.0 = phi double [ %20, %for.body680.preheader ], [ %p_up1.sroa.0.0, %for.body680 ]
  %p_up1.sroa.50.0 = phi double [ %41, %for.body680.preheader ], [ %p_up2.sroa.42.0, %for.body680 ]
  %p_up1.sroa.38.0 = phi double [ %40, %for.body680.preheader ], [ %p_up2.sroa.32.0, %for.body680 ]
  %p_up1.sroa.26.0 = phi double [ %39, %for.body680.preheader ], [ %p_up2.sroa.22.0, %for.body680 ]
  %p_up1.sroa.14.0 = phi double [ %38, %for.body680.preheader ], [ %p_up2.sroa.12.0, %for.body680 ]
  %p_up1.sroa.0.0 = phi double [ %37, %for.body680.preheader ], [ %p_up2.sroa.0.0, %for.body680 ]
  %p_up2.sroa.42.0 = phi double [ %109, %for.body680.preheader ], [ %183, %for.body680 ]
  %p_up2.sroa.32.0 = phi double [ %108, %for.body680.preheader ], [ %182, %for.body680 ]
  %p_up2.sroa.22.0 = phi double [ %107, %for.body680.preheader ], [ %181, %for.body680 ]
  %p_up2.sroa.12.0 = phi double [ %106, %for.body680.preheader ], [ %180, %for.body680 ]
  %p_up2.sroa.0.0 = phi double [ %105, %for.body680.preheader ], [ %179, %for.body680 ]
  %p_um1.sroa.0.0 = phi double [ %15, %for.body680.preheader ], [ %p_u.sroa.0.0, %for.body680 ]
  %p_um1.sroa.15.0 = phi double [ %16, %for.body680.preheader ], [ %p_u.sroa.15.0, %for.body680 ]
  %p_um1.sroa.27.0 = phi double [ %17, %for.body680.preheader ], [ %p_u.sroa.28.0, %for.body680 ]
  %p_um1.sroa.39.0 = phi double [ %18, %for.body680.preheader ], [ %p_u.sroa.41.0, %for.body680 ]
  %p_um1.sroa.51.0 = phi double [ %19, %for.body680.preheader ], [ %p_u.sroa.54.0, %for.body680 ]
  %indvars.iv = phi i64 [ 3, %for.body680.preheader ], [ %indvars.iv.next, %for.body680 ]
  %p_us.02117 = phi double [ %42, %for.body680.preheader ], [ %p_usp1.02116, %for.body680 ]
  %p_usp1.02116 = phi double [ %110, %for.body680.preheader ], [ %184, %for.body680 ]
  %p_vs.02115 = phi double [ %43, %for.body680.preheader ], [ %p_vsp1.02114, %for.body680 ]
  %p_vsp1.02114 = phi double [ %111, %for.body680.preheader ], [ %185, %for.body680 ]
  %p_squarep1.02113 = phi double [ %115, %for.body680.preheader ], [ %189, %for.body680 ]
  %p_square.02112 = phi double [ %47, %for.body680.preheader ], [ %p_squarep1.02113, %for.body680 ]
  %p_rho_ip1.02111 = phi double [ %114, %for.body680.preheader ], [ %188, %for.body680 ]
  %p_rho_i.02110 = phi double [ %46, %for.body680.preheader ], [ %p_rho_ip1.02111, %for.body680 ]
  %p_qsp1.02109 = phi double [ %113, %for.body680.preheader ], [ %187, %for.body680 ]
  %p_qs.02108 = phi double [ %45, %for.body680.preheader ], [ %p_qsp1.02109, %for.body680 ]
  %p_wsp1.02107 = phi double [ %112, %for.body680.preheader ], [ %186, %for.body680 ]
  %p_ws.02106 = phi double [ %44, %for.body680.preheader ], [ %p_wsp1.02107, %for.body680 ]
  %178 = add nuw nsw i64 %indvars.iv, 2
  %arrayidx728 = getelementptr inbounds [163 x [163 x [5 x double]]], [163 x [163 x [5 x double]]]* %8, i64 %idxprom, i64 %idxprom8, i64 %178, i64 0
  %179 = load double, double* %arrayidx728, align 8, !tbaa !7
  %arrayidx737 = getelementptr inbounds [163 x [163 x [5 x double]]], [163 x [163 x [5 x double]]]* %8, i64 %idxprom, i64 %idxprom8, i64 %178, i64 1
  %180 = load double, double* %arrayidx737, align 8, !tbaa !7
  %arrayidx746 = getelementptr inbounds [163 x [163 x [5 x double]]], [163 x [163 x [5 x double]]]* %8, i64 %idxprom, i64 %idxprom8, i64 %178, i64 2
  %181 = load double, double* %arrayidx746, align 8, !tbaa !7
  %arrayidx755 = getelementptr inbounds [163 x [163 x [5 x double]]], [163 x [163 x [5 x double]]]* %8, i64 %idxprom, i64 %idxprom8, i64 %178, i64 3
  %182 = load double, double* %arrayidx755, align 8, !tbaa !7
  %arrayidx764 = getelementptr inbounds [163 x [163 x [5 x double]]], [163 x [163 x [5 x double]]]* %8, i64 %idxprom, i64 %idxprom8, i64 %178, i64 4
  %183 = load double, double* %arrayidx764, align 8, !tbaa !7
  %indvars.iv.next = add nuw nsw i64 %indvars.iv, 1
  %arrayidx772 = getelementptr inbounds [163 x [163 x double]], [163 x [163 x double]]* %2, i64 %idxprom, i64 %idxprom8, i64 %indvars.iv.next
  %184 = load double, double* %arrayidx772, align 8, !tbaa !7
  %arrayidx779 = getelementptr inbounds [163 x [163 x double]], [163 x [163 x double]]* %3, i64 %idxprom, i64 %idxprom8, i64 %indvars.iv.next
  %185 = load double, double* %arrayidx779, align 8, !tbaa !7
  %arrayidx786 = getelementptr inbounds [163 x [163 x double]], [163 x [163 x double]]* %4, i64 %idxprom, i64 %idxprom8, i64 %indvars.iv.next
  %186 = load double, double* %arrayidx786, align 8, !tbaa !7
  %arrayidx793 = getelementptr inbounds [163 x [163 x double]], [163 x [163 x double]]* %5, i64 %idxprom, i64 %idxprom8, i64 %indvars.iv.next
  %187 = load double, double* %arrayidx793, align 8, !tbaa !7
  %arrayidx800 = getelementptr inbounds [163 x [163 x double]], [163 x [163 x double]]* %6, i64 %idxprom, i64 %idxprom8, i64 %indvars.iv.next
  %188 = load double, double* %arrayidx800, align 8, !tbaa !7
  %arrayidx807 = getelementptr inbounds [163 x [163 x double]], [163 x [163 x double]]* %7, i64 %idxprom, i64 %idxprom8, i64 %indvars.iv.next
  %189 = load double, double* %arrayidx807, align 8, !tbaa !7
  %arrayidx814 = getelementptr inbounds [163 x [163 x [5 x double]]], [163 x [163 x [5 x double]]]* %9, i64 %idxprom, i64 %idxprom8, i64 %indvars.iv, i64 0
  %190 = load double, double* %arrayidx814, align 8, !tbaa !7
  %191 = tail call double @llvm.fmuladd.f64(double %p_up1.sroa.0.0, double -2.000000e+00, double %p_up2.sroa.0.0)
  %add818 = fadd double %p_u.sroa.0.0, %191
  %192 = tail call double @llvm.fmuladd.f64(double %add818, double 0x40D2FC3000000001, double %190)
  %sub821 = fsub double %p_up2.sroa.12.0, %p_u.sroa.15.0
  %193 = tail call double @llvm.fmuladd.f64(double %sub821, double -8.050000e+01, double %192)
  %arrayidx829 = getelementptr inbounds [163 x [163 x [5 x double]]], [163 x [163 x [5 x double]]]* %9, i64 %idxprom, i64 %idxprom8, i64 %indvars.iv, i64 1
  %194 = load double, double* %arrayidx829, align 8, !tbaa !7
  %195 = tail call double @llvm.fmuladd.f64(double %p_up1.sroa.14.0, double -2.000000e+00, double %p_up2.sroa.12.0)
  %add833 = fadd double %p_u.sroa.15.0, %195
  %196 = tail call double @llvm.fmuladd.f64(double %add833, double 0x40D2FC3000000001, double %194)
  %197 = tail call double @llvm.fmuladd.f64(double %p_usp1.02116, double -2.000000e+00, double %184)
  %add834 = fadd double %p_us.02117, %197
  %198 = tail call double @llvm.fmuladd.f64(double %add834, double 0x40AB004444444445, double %196)
  %199 = fneg double %p_u.sroa.15.0
  %neg838 = fmul double %p_us.02117, %199
  %200 = tail call double @llvm.fmuladd.f64(double %p_up2.sroa.12.0, double %184, double %neg838)
  %sub840 = fsub double %p_up2.sroa.42.0, %189
  %sub842 = fsub double %sub840, %p_u.sroa.54.0
  %add843 = fadd double %p_square.02112, %sub842
  %201 = tail call double @llvm.fmuladd.f64(double %add843, double 4.000000e-01, double %200)
  %202 = tail call double @llvm.fmuladd.f64(double %201, double -8.050000e+01, double %198)
  %arrayidx851 = getelementptr inbounds [163 x [163 x [5 x double]]], [163 x [163 x [5 x double]]]* %9, i64 %idxprom, i64 %idxprom8, i64 %indvars.iv, i64 2
  %203 = load double, double* %arrayidx851, align 8, !tbaa !7
  %204 = tail call double @llvm.fmuladd.f64(double %p_up1.sroa.26.0, double -2.000000e+00, double %p_up2.sroa.22.0)
  %add855 = fadd double %p_u.sroa.28.0, %204
  %205 = tail call double @llvm.fmuladd.f64(double %add855, double 0x40D2FC3000000001, double %203)
  %206 = tail call double @llvm.fmuladd.f64(double %p_vsp1.02114, double -2.000000e+00, double %185)
  %add856 = fadd double %p_vs.02115, %206
  %207 = tail call double @llvm.fmuladd.f64(double %add856, double 0x40A4403333333334, double %205)
  %208 = fneg double %p_u.sroa.28.0
  %neg860 = fmul double %p_us.02117, %208
  %209 = tail call double @llvm.fmuladd.f64(double %p_up2.sroa.22.0, double %184, double %neg860)
  %210 = tail call double @llvm.fmuladd.f64(double %209, double -8.050000e+01, double %207)
  %arrayidx868 = getelementptr inbounds [163 x [163 x [5 x double]]], [163 x [163 x [5 x double]]]* %9, i64 %idxprom, i64 %idxprom8, i64 %indvars.iv, i64 3
  %211 = load double, double* %arrayidx868, align 8, !tbaa !7
  %212 = tail call double @llvm.fmuladd.f64(double %p_up1.sroa.38.0, double -2.000000e+00, double %p_up2.sroa.32.0)
  %add872 = fadd double %p_u.sroa.41.0, %212
  %213 = tail call double @llvm.fmuladd.f64(double %add872, double 0x40D2FC3000000001, double %211)
  %214 = tail call double @llvm.fmuladd.f64(double %p_wsp1.02107, double -2.000000e+00, double %186)
  %add873 = fadd double %p_ws.02106, %214
  %215 = tail call double @llvm.fmuladd.f64(double %add873, double 0x40A4403333333334, double %213)
  %216 = fneg double %p_u.sroa.41.0
  %neg877 = fmul double %p_us.02117, %216
  %217 = tail call double @llvm.fmuladd.f64(double %p_up2.sroa.32.0, double %184, double %neg877)
  %218 = tail call double @llvm.fmuladd.f64(double %217, double -8.050000e+01, double %215)
  %arrayidx885 = getelementptr inbounds [163 x [163 x [5 x double]]], [163 x [163 x [5 x double]]]* %9, i64 %idxprom, i64 %idxprom8, i64 %indvars.iv, i64 4
  %219 = load double, double* %arrayidx885, align 8, !tbaa !7
  %220 = tail call double @llvm.fmuladd.f64(double %p_up1.sroa.50.0, double -2.000000e+00, double %p_up2.sroa.42.0)
  %add889 = fadd double %p_u.sroa.54.0, %220
  %221 = tail call double @llvm.fmuladd.f64(double %add889, double 0x40D2FC3000000001, double %219)
  %222 = tail call double @llvm.fmuladd.f64(double %p_qsp1.02109, double -2.000000e+00, double %187)
  %add890 = fadd double %p_qs.02108, %222
  %223 = tail call double @llvm.fmuladd.f64(double %add890, double 0xC0A370D4FDF3B645, double %221)
  %224 = fmul double %p_usp1.02116, -2.000000e+00
  %neg893 = fmul double %p_usp1.02116, %224
  %225 = tail call double @llvm.fmuladd.f64(double %184, double %184, double %neg893)
  %226 = tail call double @llvm.fmuladd.f64(double %p_us.02117, double %p_us.02117, double %225)
  %227 = tail call double @llvm.fmuladd.f64(double %226, double 0x407B004444444445, double %223)
  %228 = fmul double %p_up1.sroa.50.0, -2.000000e+00
  %neg898 = fmul double %p_rho_ip1.02111, %228
  %229 = tail call double @llvm.fmuladd.f64(double %p_up2.sroa.42.0, double %188, double %neg898)
  %230 = tail call double @llvm.fmuladd.f64(double %p_u.sroa.54.0, double %p_rho_i.02110, double %229)
  %231 = tail call double @llvm.fmuladd.f64(double %230, double 0x40B3D884189374BC, double %227)
  %neg902 = fmul double %189, -4.000000e-01
  %232 = tail call double @llvm.fmuladd.f64(double %p_up2.sroa.42.0, double 1.400000e+00, double %neg902)
  %neg906 = fmul double %p_square.02112, -4.000000e-01
  %233 = tail call double @llvm.fmuladd.f64(double %p_u.sroa.54.0, double 1.400000e+00, double %neg906)
  %234 = fneg double %233
  %neg908 = fmul double %p_us.02117, %234
  %235 = tail call double @llvm.fmuladd.f64(double %232, double %184, double %neg908)
  %236 = tail call double @llvm.fmuladd.f64(double %235, double -8.050000e+01, double %231)
  %237 = tail call double @llvm.fmuladd.f64(double %p_u.sroa.0.0, double -4.000000e+00, double %p_um1.sroa.0.0)
  %238 = tail call double @llvm.fmuladd.f64(double %p_up1.sroa.0.0, double 6.000000e+00, double %237)
  %239 = tail call double @llvm.fmuladd.f64(double %p_up2.sroa.0.0, double -4.000000e+00, double %238)
  %add926 = fadd double %239, %179
  %240 = tail call double @llvm.fmuladd.f64(double %add926, double -2.500000e-01, double %193)
  store double %240, double* %arrayidx814, align 8, !tbaa !7
  %241 = tail call double @llvm.fmuladd.f64(double %p_u.sroa.15.0, double -4.000000e+00, double %p_um1.sroa.15.0)
  %242 = tail call double @llvm.fmuladd.f64(double %p_up1.sroa.14.0, double 6.000000e+00, double %241)
  %243 = tail call double @llvm.fmuladd.f64(double %p_up2.sroa.12.0, double -4.000000e+00, double %242)
  %add926.1 = fadd double %243, %180
  %244 = tail call double @llvm.fmuladd.f64(double %add926.1, double -2.500000e-01, double %202)
  store double %244, double* %arrayidx829, align 8, !tbaa !7
  %245 = tail call double @llvm.fmuladd.f64(double %p_u.sroa.28.0, double -4.000000e+00, double %p_um1.sroa.27.0)
  %246 = tail call double @llvm.fmuladd.f64(double %p_up1.sroa.26.0, double 6.000000e+00, double %245)
  %247 = tail call double @llvm.fmuladd.f64(double %p_up2.sroa.22.0, double -4.000000e+00, double %246)
  %add926.2 = fadd double %247, %181
  %248 = tail call double @llvm.fmuladd.f64(double %add926.2, double -2.500000e-01, double %210)
  store double %248, double* %arrayidx851, align 8, !tbaa !7
  %249 = tail call double @llvm.fmuladd.f64(double %p_u.sroa.41.0, double -4.000000e+00, double %p_um1.sroa.39.0)
  %250 = tail call double @llvm.fmuladd.f64(double %p_up1.sroa.38.0, double 6.000000e+00, double %249)
  %251 = tail call double @llvm.fmuladd.f64(double %p_up2.sroa.32.0, double -4.000000e+00, double %250)
  %add926.3 = fadd double %251, %182
  %252 = tail call double @llvm.fmuladd.f64(double %add926.3, double -2.500000e-01, double %218)
  store double %252, double* %arrayidx868, align 8, !tbaa !7
  %253 = tail call double @llvm.fmuladd.f64(double %p_u.sroa.54.0, double -4.000000e+00, double %p_um1.sroa.51.0)
  %254 = tail call double @llvm.fmuladd.f64(double %p_up1.sroa.50.0, double 6.000000e+00, double %253)
  %255 = tail call double @llvm.fmuladd.f64(double %p_up2.sroa.42.0, double -4.000000e+00, double %254)
  %add926.4 = fadd double %255, %183
  %256 = tail call double @llvm.fmuladd.f64(double %add926.4, double -2.500000e-01, double %236)
  store double %256, double* %arrayidx885, align 8, !tbaa !7
  %exitcond.not = icmp eq i64 %indvars.iv.next, %wide.trip.count
  br i1 %exitcond.not, label %for.end940.loopexit, label %for.body680

for.end940.loopexit:                              ; preds = %for.body680
  %.pre = fmul double %p_squarep1.02113, -4.000000e-01
  %.pre2321 = tail call double @llvm.fmuladd.f64(double %p_up1.sroa.50.0, double 1.400000e+00, double %.pre)
  br label %for.end940

for.end940:                                       ; preds = %if.end, %for.end940.loopexit
  %.pre-phi2322 = phi double [ %232, %for.end940.loopexit ], [ %158, %if.end ]
  %.pre-phi = phi double [ %.pre2321, %for.end940.loopexit ], [ %90, %if.end ]
  %p_u.sroa.54.1 = phi double [ %p_up1.sroa.50.0, %for.end940.loopexit ], [ %24, %if.end ]
  %p_u.sroa.41.1 = phi double [ %p_up1.sroa.38.0, %for.end940.loopexit ], [ %23, %if.end ]
  %p_u.sroa.28.1 = phi double [ %p_up1.sroa.26.0, %for.end940.loopexit ], [ %22, %if.end ]
  %p_u.sroa.15.1 = phi double [ %p_up1.sroa.14.0, %for.end940.loopexit ], [ %21, %if.end ]
  %p_u.sroa.0.1 = phi double [ %p_up1.sroa.0.0, %for.end940.loopexit ], [ %20, %if.end ]
  %p_up1.sroa.50.1 = phi double [ %p_up2.sroa.42.0, %for.end940.loopexit ], [ %41, %if.end ]
  %p_up1.sroa.38.1 = phi double [ %p_up2.sroa.32.0, %for.end940.loopexit ], [ %40, %if.end ]
  %p_up1.sroa.26.1 = phi double [ %p_up2.sroa.22.0, %for.end940.loopexit ], [ %39, %if.end ]
  %p_up1.sroa.14.1 = phi double [ %p_up2.sroa.12.0, %for.end940.loopexit ], [ %38, %if.end ]
  %p_up1.sroa.0.1 = phi double [ %p_up2.sroa.0.0, %for.end940.loopexit ], [ %37, %if.end ]
  %p_up2.sroa.42.1 = phi double [ %183, %for.end940.loopexit ], [ %109, %if.end ]
  %p_up2.sroa.32.1 = phi double [ %182, %for.end940.loopexit ], [ %108, %if.end ]
  %p_up2.sroa.22.1 = phi double [ %181, %for.end940.loopexit ], [ %107, %if.end ]
  %p_up2.sroa.12.1 = phi double [ %180, %for.end940.loopexit ], [ %106, %if.end ]
  %p_up2.sroa.0.1 = phi double [ %179, %for.end940.loopexit ], [ %105, %if.end ]
  %p_um1.sroa.0.1 = phi double [ %p_u.sroa.0.0, %for.end940.loopexit ], [ %15, %if.end ]
  %p_um1.sroa.15.1 = phi double [ %p_u.sroa.15.0, %for.end940.loopexit ], [ %16, %if.end ]
  %p_um1.sroa.27.1 = phi double [ %p_u.sroa.28.0, %for.end940.loopexit ], [ %17, %if.end ]
  %p_um1.sroa.39.1 = phi double [ %p_u.sroa.41.0, %for.end940.loopexit ], [ %18, %if.end ]
  %p_um1.sroa.51.1 = phi double [ %p_u.sroa.54.0, %for.end940.loopexit ], [ %19, %if.end ]
  %p_ws.0.lcssa = phi double [ %p_wsp1.02107, %for.end940.loopexit ], [ %44, %if.end ]
  %p_wsp1.0.lcssa = phi double [ %186, %for.end940.loopexit ], [ %112, %if.end ]
  %p_qs.0.lcssa = phi double [ %p_qsp1.02109, %for.end940.loopexit ], [ %45, %if.end ]
  %p_qsp1.0.lcssa = phi double [ %187, %for.end940.loopexit ], [ %113, %if.end ]
  %p_rho_i.0.lcssa = phi double [ %p_rho_ip1.02111, %for.end940.loopexit ], [ %46, %if.end ]
  %p_rho_ip1.0.lcssa = phi double [ %188, %for.end940.loopexit ], [ %114, %if.end ]
  %p_square.0.lcssa = phi double [ %p_squarep1.02113, %for.end940.loopexit ], [ %47, %if.end ]
  %p_squarep1.0.lcssa = phi double [ %189, %for.end940.loopexit ], [ %115, %if.end ]
  %p_vsp1.0.lcssa = phi double [ %185, %for.end940.loopexit ], [ %111, %if.end ]
  %p_vs.0.lcssa = phi double [ %p_vsp1.02114, %for.end940.loopexit ], [ %43, %if.end ]
  %p_usp1.0.lcssa = phi double [ %184, %for.end940.loopexit ], [ %110, %if.end ]
  %p_us.0.lcssa = phi double [ %p_usp1.02116, %for.end940.loopexit ], [ %42, %if.end ]
  %add986 = add nsw i32 %gp0, -1
  %idxprom987 = sext i32 %add986 to i64
  %arrayidx989 = getelementptr inbounds [163 x [163 x [5 x double]]], [163 x [163 x [5 x double]]]* %8, i64 %idxprom, i64 %idxprom8, i64 %idxprom987, i64 0
  %257 = load double, double* %arrayidx989, align 8, !tbaa !7
  %arrayidx998 = getelementptr inbounds [163 x [163 x [5 x double]]], [163 x [163 x [5 x double]]]* %8, i64 %idxprom, i64 %idxprom8, i64 %idxprom987, i64 1
  %258 = load double, double* %arrayidx998, align 8, !tbaa !7
  %arrayidx1007 = getelementptr inbounds [163 x [163 x [5 x double]]], [163 x [163 x [5 x double]]]* %8, i64 %idxprom, i64 %idxprom8, i64 %idxprom987, i64 2
  %259 = load double, double* %arrayidx1007, align 8, !tbaa !7
  %arrayidx1016 = getelementptr inbounds [163 x [163 x [5 x double]]], [163 x [163 x [5 x double]]]* %8, i64 %idxprom, i64 %idxprom8, i64 %idxprom987, i64 3
  %260 = load double, double* %arrayidx1016, align 8, !tbaa !7
  %arrayidx1025 = getelementptr inbounds [163 x [163 x [5 x double]]], [163 x [163 x [5 x double]]]* %8, i64 %idxprom, i64 %idxprom8, i64 %idxprom987, i64 4
  %261 = load double, double* %arrayidx1025, align 8, !tbaa !7
  %add1031 = add nsw i32 %gp0, -2
  %idxprom1032 = sext i32 %add1031 to i64
  %arrayidx1033 = getelementptr inbounds [163 x [163 x double]], [163 x [163 x double]]* %2, i64 %idxprom, i64 %idxprom8, i64 %idxprom1032
  %262 = load double, double* %arrayidx1033, align 8, !tbaa !7
  %arrayidx1040 = getelementptr inbounds [163 x [163 x double]], [163 x [163 x double]]* %3, i64 %idxprom, i64 %idxprom8, i64 %idxprom1032
  %263 = load double, double* %arrayidx1040, align 8, !tbaa !7
  %arrayidx1047 = getelementptr inbounds [163 x [163 x double]], [163 x [163 x double]]* %4, i64 %idxprom, i64 %idxprom8, i64 %idxprom1032
  %264 = load double, double* %arrayidx1047, align 8, !tbaa !7
  %arrayidx1054 = getelementptr inbounds [163 x [163 x double]], [163 x [163 x double]]* %5, i64 %idxprom, i64 %idxprom8, i64 %idxprom1032
  %265 = load double, double* %arrayidx1054, align 8, !tbaa !7
  %arrayidx1061 = getelementptr inbounds [163 x [163 x double]], [163 x [163 x double]]* %6, i64 %idxprom, i64 %idxprom8, i64 %idxprom1032
  %266 = load double, double* %arrayidx1061, align 8, !tbaa !7
  %arrayidx1068 = getelementptr inbounds [163 x [163 x double]], [163 x [163 x double]]* %7, i64 %idxprom, i64 %idxprom8, i64 %idxprom1032
  %267 = load double, double* %arrayidx1068, align 8, !tbaa !7
  %idxprom1073 = sext i32 %.pre2323 to i64
  %arrayidx1075 = getelementptr inbounds [163 x [163 x [5 x double]]], [163 x [163 x [5 x double]]]* %9, i64 %idxprom, i64 %idxprom8, i64 %idxprom1073, i64 0
  %268 = load double, double* %arrayidx1075, align 8, !tbaa !7
  %269 = tail call double @llvm.fmuladd.f64(double %p_up1.sroa.0.1, double -2.000000e+00, double %p_up2.sroa.0.1)
  %add1079 = fadd double %p_u.sroa.0.1, %269
  %270 = tail call double @llvm.fmuladd.f64(double %add1079, double 0x40D2FC3000000001, double %268)
  %sub1082 = fsub double %p_up2.sroa.12.1, %p_u.sroa.15.1
  %271 = tail call double @llvm.fmuladd.f64(double %sub1082, double -8.050000e+01, double %270)
  %arrayidx1090 = getelementptr inbounds [163 x [163 x [5 x double]]], [163 x [163 x [5 x double]]]* %9, i64 %idxprom, i64 %idxprom8, i64 %idxprom1073, i64 1
  %272 = load double, double* %arrayidx1090, align 8, !tbaa !7
  %273 = tail call double @llvm.fmuladd.f64(double %p_up1.sroa.14.1, double -2.000000e+00, double %p_up2.sroa.12.1)
  %add1094 = fadd double %p_u.sroa.15.1, %273
  %274 = tail call double @llvm.fmuladd.f64(double %add1094, double 0x40D2FC3000000001, double %272)
  %275 = tail call double @llvm.fmuladd.f64(double %p_usp1.0.lcssa, double -2.000000e+00, double %262)
  %add1095 = fadd double %p_us.0.lcssa, %275
  %276 = tail call double @llvm.fmuladd.f64(double %add1095, double 0x40AB004444444445, double %274)
  %277 = fneg double %p_u.sroa.15.1
  %neg1099 = fmul double %p_us.0.lcssa, %277
  %278 = tail call double @llvm.fmuladd.f64(double %p_up2.sroa.12.1, double %262, double %neg1099)
  %sub1101 = fsub double %p_up2.sroa.42.1, %267
  %sub1103 = fsub double %sub1101, %p_u.sroa.54.1
  %add1104 = fadd double %p_square.0.lcssa, %sub1103
  %279 = tail call double @llvm.fmuladd.f64(double %add1104, double 4.000000e-01, double %278)
  %280 = tail call double @llvm.fmuladd.f64(double %279, double -8.050000e+01, double %276)
  %arrayidx1112 = getelementptr inbounds [163 x [163 x [5 x double]]], [163 x [163 x [5 x double]]]* %9, i64 %idxprom, i64 %idxprom8, i64 %idxprom1073, i64 2
  %281 = load double, double* %arrayidx1112, align 8, !tbaa !7
  %282 = tail call double @llvm.fmuladd.f64(double %p_up1.sroa.26.1, double -2.000000e+00, double %p_up2.sroa.22.1)
  %add1116 = fadd double %p_u.sroa.28.1, %282
  %283 = tail call double @llvm.fmuladd.f64(double %add1116, double 0x40D2FC3000000001, double %281)
  %284 = tail call double @llvm.fmuladd.f64(double %p_vsp1.0.lcssa, double -2.000000e+00, double %263)
  %add1117 = fadd double %p_vs.0.lcssa, %284
  %285 = tail call double @llvm.fmuladd.f64(double %add1117, double 0x40A4403333333334, double %283)
  %286 = fneg double %p_u.sroa.28.1
  %neg1121 = fmul double %p_us.0.lcssa, %286
  %287 = tail call double @llvm.fmuladd.f64(double %p_up2.sroa.22.1, double %262, double %neg1121)
  %288 = tail call double @llvm.fmuladd.f64(double %287, double -8.050000e+01, double %285)
  %arrayidx1129 = getelementptr inbounds [163 x [163 x [5 x double]]], [163 x [163 x [5 x double]]]* %9, i64 %idxprom, i64 %idxprom8, i64 %idxprom1073, i64 3
  %289 = load double, double* %arrayidx1129, align 8, !tbaa !7
  %290 = tail call double @llvm.fmuladd.f64(double %p_up1.sroa.38.1, double -2.000000e+00, double %p_up2.sroa.32.1)
  %add1133 = fadd double %p_u.sroa.41.1, %290
  %291 = tail call double @llvm.fmuladd.f64(double %add1133, double 0x40D2FC3000000001, double %289)
  %292 = tail call double @llvm.fmuladd.f64(double %p_wsp1.0.lcssa, double -2.000000e+00, double %264)
  %add1134 = fadd double %p_ws.0.lcssa, %292
  %293 = tail call double @llvm.fmuladd.f64(double %add1134, double 0x40A4403333333334, double %291)
  %294 = fneg double %p_u.sroa.41.1
  %neg1138 = fmul double %p_us.0.lcssa, %294
  %295 = tail call double @llvm.fmuladd.f64(double %p_up2.sroa.32.1, double %262, double %neg1138)
  %296 = tail call double @llvm.fmuladd.f64(double %295, double -8.050000e+01, double %293)
  %arrayidx1146 = getelementptr inbounds [163 x [163 x [5 x double]]], [163 x [163 x [5 x double]]]* %9, i64 %idxprom, i64 %idxprom8, i64 %idxprom1073, i64 4
  %297 = load double, double* %arrayidx1146, align 8, !tbaa !7
  %298 = tail call double @llvm.fmuladd.f64(double %p_up1.sroa.50.1, double -2.000000e+00, double %p_up2.sroa.42.1)
  %add1150 = fadd double %p_u.sroa.54.1, %298
  %299 = tail call double @llvm.fmuladd.f64(double %add1150, double 0x40D2FC3000000001, double %297)
  %300 = tail call double @llvm.fmuladd.f64(double %p_qsp1.0.lcssa, double -2.000000e+00, double %265)
  %add1151 = fadd double %p_qs.0.lcssa, %300
  %301 = tail call double @llvm.fmuladd.f64(double %add1151, double 0xC0A370D4FDF3B645, double %299)
  %302 = fmul double %p_usp1.0.lcssa, -2.000000e+00
  %neg1154 = fmul double %p_usp1.0.lcssa, %302
  %303 = tail call double @llvm.fmuladd.f64(double %262, double %262, double %neg1154)
  %304 = tail call double @llvm.fmuladd.f64(double %p_us.0.lcssa, double %p_us.0.lcssa, double %303)
  %305 = tail call double @llvm.fmuladd.f64(double %304, double 0x407B004444444445, double %301)
  %306 = fmul double %p_up1.sroa.50.1, -2.000000e+00
  %neg1159 = fmul double %p_rho_ip1.0.lcssa, %306
  %307 = tail call double @llvm.fmuladd.f64(double %p_up2.sroa.42.1, double %266, double %neg1159)
  %308 = tail call double @llvm.fmuladd.f64(double %p_u.sroa.54.1, double %p_rho_i.0.lcssa, double %307)
  %309 = tail call double @llvm.fmuladd.f64(double %308, double 0x40B3D884189374BC, double %305)
  %neg1163 = fmul double %267, -4.000000e-01
  %310 = tail call double @llvm.fmuladd.f64(double %p_up2.sroa.42.1, double 1.400000e+00, double %neg1163)
  %311 = fneg double %.pre-phi
  %neg1169 = fmul double %p_us.0.lcssa, %311
  %312 = tail call double @llvm.fmuladd.f64(double %310, double %262, double %neg1169)
  %313 = tail call double @llvm.fmuladd.f64(double %312, double -8.050000e+01, double %309)
  %314 = tail call double @llvm.fmuladd.f64(double %p_u.sroa.0.1, double -4.000000e+00, double %p_um1.sroa.0.1)
  %315 = tail call double @llvm.fmuladd.f64(double %p_up1.sroa.0.1, double 6.000000e+00, double %314)
  %316 = tail call double @llvm.fmuladd.f64(double %p_up2.sroa.0.1, double -4.000000e+00, double %315)
  %317 = tail call double @llvm.fmuladd.f64(double %316, double -2.500000e-01, double %271)
  store double %317, double* %arrayidx1075, align 8, !tbaa !7
  %318 = tail call double @llvm.fmuladd.f64(double %p_u.sroa.15.1, double -4.000000e+00, double %p_um1.sroa.15.1)
  %319 = tail call double @llvm.fmuladd.f64(double %p_up1.sroa.14.1, double 6.000000e+00, double %318)
  %320 = tail call double @llvm.fmuladd.f64(double %p_up2.sroa.12.1, double -4.000000e+00, double %319)
  %321 = tail call double @llvm.fmuladd.f64(double %320, double -2.500000e-01, double %280)
  store double %321, double* %arrayidx1090, align 8, !tbaa !7
  %322 = tail call double @llvm.fmuladd.f64(double %p_u.sroa.28.1, double -4.000000e+00, double %p_um1.sroa.27.1)
  %323 = tail call double @llvm.fmuladd.f64(double %p_up1.sroa.26.1, double 6.000000e+00, double %322)
  %324 = tail call double @llvm.fmuladd.f64(double %p_up2.sroa.22.1, double -4.000000e+00, double %323)
  %325 = tail call double @llvm.fmuladd.f64(double %324, double -2.500000e-01, double %288)
  store double %325, double* %arrayidx1112, align 8, !tbaa !7
  %326 = tail call double @llvm.fmuladd.f64(double %p_u.sroa.41.1, double -4.000000e+00, double %p_um1.sroa.39.1)
  %327 = tail call double @llvm.fmuladd.f64(double %p_up1.sroa.38.1, double 6.000000e+00, double %326)
  %328 = tail call double @llvm.fmuladd.f64(double %p_up2.sroa.32.1, double -4.000000e+00, double %327)
  %329 = tail call double @llvm.fmuladd.f64(double %328, double -2.500000e-01, double %296)
  store double %329, double* %arrayidx1129, align 8, !tbaa !7
  %330 = tail call double @llvm.fmuladd.f64(double %p_u.sroa.54.1, double -4.000000e+00, double %p_um1.sroa.51.1)
  %331 = tail call double @llvm.fmuladd.f64(double %p_up1.sroa.50.1, double 6.000000e+00, double %330)
  %332 = tail call double @llvm.fmuladd.f64(double %p_up2.sroa.42.1, double -4.000000e+00, double %331)
  %333 = tail call double @llvm.fmuladd.f64(double %332, double -2.500000e-01, double %313)
  store double %333, double* %arrayidx1146, align 8, !tbaa !7
  %arrayidx1243 = getelementptr inbounds [163 x [163 x double]], [163 x [163 x double]]* %2, i64 %idxprom, i64 %idxprom8, i64 %idxprom987
  %334 = load double, double* %arrayidx1243, align 8, !tbaa !7
  %arrayidx1250 = getelementptr inbounds [163 x [163 x double]], [163 x [163 x double]]* %3, i64 %idxprom, i64 %idxprom8, i64 %idxprom987
  %335 = load double, double* %arrayidx1250, align 8, !tbaa !7
  %arrayidx1257 = getelementptr inbounds [163 x [163 x double]], [163 x [163 x double]]* %4, i64 %idxprom, i64 %idxprom8, i64 %idxprom987
  %336 = load double, double* %arrayidx1257, align 8, !tbaa !7
  %arrayidx1264 = getelementptr inbounds [163 x [163 x double]], [163 x [163 x double]]* %5, i64 %idxprom, i64 %idxprom8, i64 %idxprom987
  %337 = load double, double* %arrayidx1264, align 8, !tbaa !7
  %arrayidx1271 = getelementptr inbounds [163 x [163 x double]], [163 x [163 x double]]* %6, i64 %idxprom, i64 %idxprom8, i64 %idxprom987
  %338 = load double, double* %arrayidx1271, align 8, !tbaa !7
  %arrayidx1278 = getelementptr inbounds [163 x [163 x double]], [163 x [163 x double]]* %7, i64 %idxprom, i64 %idxprom8, i64 %idxprom987
  %339 = load double, double* %arrayidx1278, align 8, !tbaa !7
  %arrayidx1285 = getelementptr inbounds [163 x [163 x [5 x double]]], [163 x [163 x [5 x double]]]* %9, i64 %idxprom, i64 %idxprom8, i64 %idxprom1032, i64 0
  %340 = load double, double* %arrayidx1285, align 8, !tbaa !7
  %341 = tail call double @llvm.fmuladd.f64(double %p_up2.sroa.0.1, double -2.000000e+00, double %257)
  %add1289 = fadd double %p_up1.sroa.0.1, %341
  %342 = tail call double @llvm.fmuladd.f64(double %add1289, double 0x40D2FC3000000001, double %340)
  %sub1292 = fsub double %258, %p_up1.sroa.14.1
  %343 = tail call double @llvm.fmuladd.f64(double %sub1292, double -8.050000e+01, double %342)
  %arrayidx1300 = getelementptr inbounds [163 x [163 x [5 x double]]], [163 x [163 x [5 x double]]]* %9, i64 %idxprom, i64 %idxprom8, i64 %idxprom1032, i64 1
  %344 = load double, double* %arrayidx1300, align 8, !tbaa !7
  %345 = tail call double @llvm.fmuladd.f64(double %p_up2.sroa.12.1, double -2.000000e+00, double %258)
  %add1304 = fadd double %p_up1.sroa.14.1, %345
  %346 = tail call double @llvm.fmuladd.f64(double %add1304, double 0x40D2FC3000000001, double %344)
  %347 = tail call double @llvm.fmuladd.f64(double %262, double -2.000000e+00, double %334)
  %add1305 = fadd double %p_usp1.0.lcssa, %347
  %348 = tail call double @llvm.fmuladd.f64(double %add1305, double 0x40AB004444444445, double %346)
  %349 = fneg double %p_up1.sroa.14.1
  %neg1309 = fmul double %p_usp1.0.lcssa, %349
  %350 = tail call double @llvm.fmuladd.f64(double %258, double %334, double %neg1309)
  %sub1311 = fsub double %261, %339
  %sub1313 = fsub double %sub1311, %p_up1.sroa.50.1
  %add1314 = fadd double %p_squarep1.0.lcssa, %sub1313
  %351 = tail call double @llvm.fmuladd.f64(double %add1314, double 4.000000e-01, double %350)
  %352 = tail call double @llvm.fmuladd.f64(double %351, double -8.050000e+01, double %348)
  %arrayidx1322 = getelementptr inbounds [163 x [163 x [5 x double]]], [163 x [163 x [5 x double]]]* %9, i64 %idxprom, i64 %idxprom8, i64 %idxprom1032, i64 2
  %353 = load double, double* %arrayidx1322, align 8, !tbaa !7
  %354 = tail call double @llvm.fmuladd.f64(double %p_up2.sroa.22.1, double -2.000000e+00, double %259)
  %add1326 = fadd double %p_up1.sroa.26.1, %354
  %355 = tail call double @llvm.fmuladd.f64(double %add1326, double 0x40D2FC3000000001, double %353)
  %356 = tail call double @llvm.fmuladd.f64(double %263, double -2.000000e+00, double %335)
  %add1327 = fadd double %p_vsp1.0.lcssa, %356
  %357 = tail call double @llvm.fmuladd.f64(double %add1327, double 0x40A4403333333334, double %355)
  %358 = fneg double %p_up1.sroa.26.1
  %neg1331 = fmul double %p_usp1.0.lcssa, %358
  %359 = tail call double @llvm.fmuladd.f64(double %259, double %334, double %neg1331)
  %360 = tail call double @llvm.fmuladd.f64(double %359, double -8.050000e+01, double %357)
  %arrayidx1339 = getelementptr inbounds [163 x [163 x [5 x double]]], [163 x [163 x [5 x double]]]* %9, i64 %idxprom, i64 %idxprom8, i64 %idxprom1032, i64 3
  %361 = load double, double* %arrayidx1339, align 8, !tbaa !7
  %362 = tail call double @llvm.fmuladd.f64(double %p_up2.sroa.32.1, double -2.000000e+00, double %260)
  %add1343 = fadd double %p_up1.sroa.38.1, %362
  %363 = tail call double @llvm.fmuladd.f64(double %add1343, double 0x40D2FC3000000001, double %361)
  %364 = tail call double @llvm.fmuladd.f64(double %264, double -2.000000e+00, double %336)
  %add1344 = fadd double %p_wsp1.0.lcssa, %364
  %365 = tail call double @llvm.fmuladd.f64(double %add1344, double 0x40A4403333333334, double %363)
  %366 = fneg double %p_up1.sroa.38.1
  %neg1348 = fmul double %p_usp1.0.lcssa, %366
  %367 = tail call double @llvm.fmuladd.f64(double %260, double %334, double %neg1348)
  %368 = tail call double @llvm.fmuladd.f64(double %367, double -8.050000e+01, double %365)
  %arrayidx1356 = getelementptr inbounds [163 x [163 x [5 x double]]], [163 x [163 x [5 x double]]]* %9, i64 %idxprom, i64 %idxprom8, i64 %idxprom1032, i64 4
  %369 = load double, double* %arrayidx1356, align 8, !tbaa !7
  %370 = tail call double @llvm.fmuladd.f64(double %p_up2.sroa.42.1, double -2.000000e+00, double %261)
  %add1360 = fadd double %p_up1.sroa.50.1, %370
  %371 = tail call double @llvm.fmuladd.f64(double %add1360, double 0x40D2FC3000000001, double %369)
  %372 = tail call double @llvm.fmuladd.f64(double %265, double -2.000000e+00, double %337)
  %add1361 = fadd double %p_qsp1.0.lcssa, %372
  %373 = tail call double @llvm.fmuladd.f64(double %add1361, double 0xC0A370D4FDF3B645, double %371)
  %374 = fmul double %262, -2.000000e+00
  %neg1364 = fmul double %262, %374
  %375 = tail call double @llvm.fmuladd.f64(double %334, double %334, double %neg1364)
  %376 = tail call double @llvm.fmuladd.f64(double %p_usp1.0.lcssa, double %p_usp1.0.lcssa, double %375)
  %377 = tail call double @llvm.fmuladd.f64(double %376, double 0x407B004444444445, double %373)
  %378 = fmul double %p_up2.sroa.42.1, -2.000000e+00
  %neg1369 = fmul double %378, %266
  %379 = tail call double @llvm.fmuladd.f64(double %261, double %338, double %neg1369)
  %380 = tail call double @llvm.fmuladd.f64(double %p_up1.sroa.50.1, double %p_rho_ip1.0.lcssa, double %379)
  %381 = tail call double @llvm.fmuladd.f64(double %380, double 0x40B3D884189374BC, double %377)
  %neg1373 = fmul double %339, -4.000000e-01
  %382 = tail call double @llvm.fmuladd.f64(double %261, double 1.400000e+00, double %neg1373)
  %383 = fneg double %.pre-phi2322
  %neg1379 = fmul double %p_usp1.0.lcssa, %383
  %384 = tail call double @llvm.fmuladd.f64(double %382, double %334, double %neg1379)
  %385 = tail call double @llvm.fmuladd.f64(double %384, double -8.050000e+01, double %381)
  %386 = tail call double @llvm.fmuladd.f64(double %p_up1.sroa.0.1, double -4.000000e+00, double %p_u.sroa.0.1)
  %387 = tail call double @llvm.fmuladd.f64(double %p_up2.sroa.0.1, double 5.000000e+00, double %386)
  %388 = tail call double @llvm.fmuladd.f64(double %387, double -2.500000e-01, double %343)
  store double %388, double* %arrayidx1285, align 8, !tbaa !7
  %389 = tail call double @llvm.fmuladd.f64(double %p_up1.sroa.14.1, double -4.000000e+00, double %p_u.sroa.15.1)
  %390 = tail call double @llvm.fmuladd.f64(double %p_up2.sroa.12.1, double 5.000000e+00, double %389)
  %391 = tail call double @llvm.fmuladd.f64(double %390, double -2.500000e-01, double %352)
  store double %391, double* %arrayidx1300, align 8, !tbaa !7
  %392 = tail call double @llvm.fmuladd.f64(double %p_up1.sroa.26.1, double -4.000000e+00, double %p_u.sroa.28.1)
  %393 = tail call double @llvm.fmuladd.f64(double %p_up2.sroa.22.1, double 5.000000e+00, double %392)
  %394 = tail call double @llvm.fmuladd.f64(double %393, double -2.500000e-01, double %360)
  store double %394, double* %arrayidx1322, align 8, !tbaa !7
  %395 = tail call double @llvm.fmuladd.f64(double %p_up1.sroa.38.1, double -4.000000e+00, double %p_u.sroa.41.1)
  %396 = tail call double @llvm.fmuladd.f64(double %p_up2.sroa.32.1, double 5.000000e+00, double %395)
  %397 = tail call double @llvm.fmuladd.f64(double %396, double -2.500000e-01, double %368)
  store double %397, double* %arrayidx1339, align 8, !tbaa !7
  %398 = tail call double @llvm.fmuladd.f64(double %p_up1.sroa.50.1, double -4.000000e+00, double %p_u.sroa.54.1)
  %399 = tail call double @llvm.fmuladd.f64(double %p_up2.sroa.42.1, double 5.000000e+00, double %398)
  %400 = tail call double @llvm.fmuladd.f64(double %399, double -2.500000e-01, double %385)
  store double %400, double* %arrayidx1356, align 8, !tbaa !7
  br label %cleanup

cleanup:                                          ; preds = %for.end940, %entry
  ret void
}

; Function Attrs: convergent nofree norecurse nounwind uwtable
define dso_local spir_kernel void @compute_rhs4(double* readonly %g_u, double* nocapture readonly %g_us, double* nocapture readonly %g_vs, double* nocapture readonly %g_ws, double* nocapture readonly %g_qs, double* nocapture readonly %g_rho_i, double* nocapture readonly %g_square, double* %g_rhs, i32 %gp0, i32 %gp1, i32 %gp2) local_unnamed_addr #0 !kernel_arg_addr_space !15 !kernel_arg_access_qual !16 !kernel_arg_type !17 !kernel_arg_base_type !17 !kernel_arg_type_qual !18 {
entry:
  %call = tail call i64 @_Z13get_global_idj(i32 1) #6
  %0 = trunc i64 %call to i32
  %conv = add i32 %0, 1
  %call1 = tail call i64 @_Z13get_global_idj(i32 0) #6
  %1 = trunc i64 %call1 to i32
  %conv3 = add i32 %1, 1
  %sub = add nsw i32 %gp2, -2
  %cmp = icmp sgt i32 %conv, %sub
  %sub5 = add nsw i32 %gp0, -2
  %cmp6 = icmp sgt i32 %conv3, %sub5
  %or.cond = or i1 %cmp, %cmp6
  br i1 %or.cond, label %cleanup, label %if.end

if.end:                                           ; preds = %entry
  %2 = bitcast double* %g_us to [163 x [163 x double]]*
  %3 = bitcast double* %g_vs to [163 x [163 x double]]*
  %4 = bitcast double* %g_ws to [163 x [163 x double]]*
  %5 = bitcast double* %g_qs to [163 x [163 x double]]*
  %6 = bitcast double* %g_rho_i to [163 x [163 x double]]*
  %7 = bitcast double* %g_square to [163 x [163 x double]]*
  %8 = bitcast double* %g_u to [163 x [163 x [5 x double]]]*
  %9 = bitcast double* %g_rhs to [163 x [163 x [5 x double]]]*
  %idxprom = sext i32 %conv to i64
  %idxprom9 = sext i32 %conv3 to i64
  %arrayidx11 = getelementptr inbounds [163 x [163 x [5 x double]]], [163 x [163 x [5 x double]]]* %8, i64 %idxprom, i64 0, i64 %idxprom9, i64 0
  %10 = load double, double* %arrayidx11, align 8, !tbaa !7
  %arrayidx18 = getelementptr inbounds [163 x [163 x [5 x double]]], [163 x [163 x [5 x double]]]* %8, i64 %idxprom, i64 0, i64 %idxprom9, i64 1
  %11 = load double, double* %arrayidx18, align 8, !tbaa !7
  %arrayidx25 = getelementptr inbounds [163 x [163 x [5 x double]]], [163 x [163 x [5 x double]]]* %8, i64 %idxprom, i64 0, i64 %idxprom9, i64 2
  %12 = load double, double* %arrayidx25, align 8, !tbaa !7
  %arrayidx32 = getelementptr inbounds [163 x [163 x [5 x double]]], [163 x [163 x [5 x double]]]* %8, i64 %idxprom, i64 0, i64 %idxprom9, i64 3
  %13 = load double, double* %arrayidx32, align 8, !tbaa !7
  %arrayidx39 = getelementptr inbounds [163 x [163 x [5 x double]]], [163 x [163 x [5 x double]]]* %8, i64 %idxprom, i64 0, i64 %idxprom9, i64 4
  %14 = load double, double* %arrayidx39, align 8, !tbaa !7
  %arrayidx46 = getelementptr inbounds [163 x [163 x [5 x double]]], [163 x [163 x [5 x double]]]* %8, i64 %idxprom, i64 1, i64 %idxprom9, i64 0
  %15 = load double, double* %arrayidx46, align 8, !tbaa !7
  %arrayidx53 = getelementptr inbounds [163 x [163 x [5 x double]]], [163 x [163 x [5 x double]]]* %8, i64 %idxprom, i64 1, i64 %idxprom9, i64 1
  %16 = load double, double* %arrayidx53, align 8, !tbaa !7
  %arrayidx60 = getelementptr inbounds [163 x [163 x [5 x double]]], [163 x [163 x [5 x double]]]* %8, i64 %idxprom, i64 1, i64 %idxprom9, i64 2
  %17 = load double, double* %arrayidx60, align 8, !tbaa !7
  %arrayidx67 = getelementptr inbounds [163 x [163 x [5 x double]]], [163 x [163 x [5 x double]]]* %8, i64 %idxprom, i64 1, i64 %idxprom9, i64 3
  %18 = load double, double* %arrayidx67, align 8, !tbaa !7
  %arrayidx74 = getelementptr inbounds [163 x [163 x [5 x double]]], [163 x [163 x [5 x double]]]* %8, i64 %idxprom, i64 1, i64 %idxprom9, i64 4
  %19 = load double, double* %arrayidx74, align 8, !tbaa !7
  %arrayidx81 = getelementptr inbounds [163 x [163 x [5 x double]]], [163 x [163 x [5 x double]]]* %8, i64 %idxprom, i64 2, i64 %idxprom9, i64 0
  %20 = load double, double* %arrayidx81, align 8, !tbaa !7
  %arrayidx88 = getelementptr inbounds [163 x [163 x [5 x double]]], [163 x [163 x [5 x double]]]* %8, i64 %idxprom, i64 2, i64 %idxprom9, i64 1
  %21 = load double, double* %arrayidx88, align 8, !tbaa !7
  %arrayidx95 = getelementptr inbounds [163 x [163 x [5 x double]]], [163 x [163 x [5 x double]]]* %8, i64 %idxprom, i64 2, i64 %idxprom9, i64 2
  %22 = load double, double* %arrayidx95, align 8, !tbaa !7
  %arrayidx102 = getelementptr inbounds [163 x [163 x [5 x double]]], [163 x [163 x [5 x double]]]* %8, i64 %idxprom, i64 2, i64 %idxprom9, i64 3
  %23 = load double, double* %arrayidx102, align 8, !tbaa !7
  %arrayidx109 = getelementptr inbounds [163 x [163 x [5 x double]]], [163 x [163 x [5 x double]]]* %8, i64 %idxprom, i64 2, i64 %idxprom9, i64 4
  %24 = load double, double* %arrayidx109, align 8, !tbaa !7
  %arrayidx115 = getelementptr inbounds [163 x [163 x double]], [163 x [163 x double]]* %2, i64 %idxprom, i64 0, i64 %idxprom9
  %25 = load double, double* %arrayidx115, align 8, !tbaa !7
  %arrayidx120 = getelementptr inbounds [163 x [163 x double]], [163 x [163 x double]]* %2, i64 %idxprom, i64 1, i64 %idxprom9
  %26 = load double, double* %arrayidx120, align 8, !tbaa !7
  %arrayidx125 = getelementptr inbounds [163 x [163 x double]], [163 x [163 x double]]* %3, i64 %idxprom, i64 0, i64 %idxprom9
  %27 = load double, double* %arrayidx125, align 8, !tbaa !7
  %arrayidx130 = getelementptr inbounds [163 x [163 x double]], [163 x [163 x double]]* %3, i64 %idxprom, i64 1, i64 %idxprom9
  %28 = load double, double* %arrayidx130, align 8, !tbaa !7
  %arrayidx135 = getelementptr inbounds [163 x [163 x double]], [163 x [163 x double]]* %4, i64 %idxprom, i64 0, i64 %idxprom9
  %29 = load double, double* %arrayidx135, align 8, !tbaa !7
  %arrayidx140 = getelementptr inbounds [163 x [163 x double]], [163 x [163 x double]]* %4, i64 %idxprom, i64 1, i64 %idxprom9
  %30 = load double, double* %arrayidx140, align 8, !tbaa !7
  %arrayidx145 = getelementptr inbounds [163 x [163 x double]], [163 x [163 x double]]* %5, i64 %idxprom, i64 0, i64 %idxprom9
  %31 = load double, double* %arrayidx145, align 8, !tbaa !7
  %arrayidx150 = getelementptr inbounds [163 x [163 x double]], [163 x [163 x double]]* %5, i64 %idxprom, i64 1, i64 %idxprom9
  %32 = load double, double* %arrayidx150, align 8, !tbaa !7
  %arrayidx155 = getelementptr inbounds [163 x [163 x double]], [163 x [163 x double]]* %6, i64 %idxprom, i64 0, i64 %idxprom9
  %33 = load double, double* %arrayidx155, align 8, !tbaa !7
  %arrayidx160 = getelementptr inbounds [163 x [163 x double]], [163 x [163 x double]]* %6, i64 %idxprom, i64 1, i64 %idxprom9
  %34 = load double, double* %arrayidx160, align 8, !tbaa !7
  %arrayidx165 = getelementptr inbounds [163 x [163 x double]], [163 x [163 x double]]* %7, i64 %idxprom, i64 0, i64 %idxprom9
  %35 = load double, double* %arrayidx165, align 8, !tbaa !7
  %arrayidx170 = getelementptr inbounds [163 x [163 x double]], [163 x [163 x double]]* %7, i64 %idxprom, i64 1, i64 %idxprom9
  %36 = load double, double* %arrayidx170, align 8, !tbaa !7
  %arrayidx218 = getelementptr inbounds [163 x [163 x [5 x double]]], [163 x [163 x [5 x double]]]* %8, i64 %idxprom, i64 3, i64 %idxprom9, i64 0
  %37 = load double, double* %arrayidx218, align 8, !tbaa !7
  %arrayidx227 = getelementptr inbounds [163 x [163 x [5 x double]]], [163 x [163 x [5 x double]]]* %8, i64 %idxprom, i64 3, i64 %idxprom9, i64 1
  %38 = load double, double* %arrayidx227, align 8, !tbaa !7
  %arrayidx236 = getelementptr inbounds [163 x [163 x [5 x double]]], [163 x [163 x [5 x double]]]* %8, i64 %idxprom, i64 3, i64 %idxprom9, i64 2
  %39 = load double, double* %arrayidx236, align 8, !tbaa !7
  %arrayidx245 = getelementptr inbounds [163 x [163 x [5 x double]]], [163 x [163 x [5 x double]]]* %8, i64 %idxprom, i64 3, i64 %idxprom9, i64 3
  %40 = load double, double* %arrayidx245, align 8, !tbaa !7
  %arrayidx254 = getelementptr inbounds [163 x [163 x [5 x double]]], [163 x [163 x [5 x double]]]* %8, i64 %idxprom, i64 3, i64 %idxprom9, i64 4
  %41 = load double, double* %arrayidx254, align 8, !tbaa !7
  %arrayidx262 = getelementptr inbounds [163 x [163 x double]], [163 x [163 x double]]* %2, i64 %idxprom, i64 2, i64 %idxprom9
  %42 = load double, double* %arrayidx262, align 8, !tbaa !7
  %arrayidx269 = getelementptr inbounds [163 x [163 x double]], [163 x [163 x double]]* %3, i64 %idxprom, i64 2, i64 %idxprom9
  %43 = load double, double* %arrayidx269, align 8, !tbaa !7
  %arrayidx276 = getelementptr inbounds [163 x [163 x double]], [163 x [163 x double]]* %4, i64 %idxprom, i64 2, i64 %idxprom9
  %44 = load double, double* %arrayidx276, align 8, !tbaa !7
  %arrayidx283 = getelementptr inbounds [163 x [163 x double]], [163 x [163 x double]]* %5, i64 %idxprom, i64 2, i64 %idxprom9
  %45 = load double, double* %arrayidx283, align 8, !tbaa !7
  %arrayidx290 = getelementptr inbounds [163 x [163 x double]], [163 x [163 x double]]* %6, i64 %idxprom, i64 2, i64 %idxprom9
  %46 = load double, double* %arrayidx290, align 8, !tbaa !7
  %arrayidx297 = getelementptr inbounds [163 x [163 x double]], [163 x [163 x double]]* %7, i64 %idxprom, i64 2, i64 %idxprom9
  %47 = load double, double* %arrayidx297, align 8, !tbaa !7
  %arrayidx304 = getelementptr inbounds [163 x [163 x [5 x double]]], [163 x [163 x [5 x double]]]* %9, i64 %idxprom, i64 1, i64 %idxprom9, i64 0
  %48 = load double, double* %arrayidx304, align 8, !tbaa !7
  %49 = tail call double @llvm.fmuladd.f64(double %15, double -2.000000e+00, double %20)
  %add308 = fadd double %10, %49
  %50 = tail call double @llvm.fmuladd.f64(double %add308, double 0x40D2FC3000000001, double %48)
  %sub311 = fsub double %22, %12
  %51 = tail call double @llvm.fmuladd.f64(double %sub311, double -8.050000e+01, double %50)
  %arrayidx319 = getelementptr inbounds [163 x [163 x [5 x double]]], [163 x [163 x [5 x double]]]* %9, i64 %idxprom, i64 1, i64 %idxprom9, i64 1
  %52 = load double, double* %arrayidx319, align 8, !tbaa !7
  %53 = tail call double @llvm.fmuladd.f64(double %16, double -2.000000e+00, double %21)
  %add323 = fadd double %11, %53
  %54 = tail call double @llvm.fmuladd.f64(double %add323, double 0x40D2FC3000000001, double %52)
  %55 = tail call double @llvm.fmuladd.f64(double %26, double -2.000000e+00, double %42)
  %add324 = fadd double %25, %55
  %56 = tail call double @llvm.fmuladd.f64(double %add324, double 0x40A4403333333334, double %54)
  %57 = fneg double %11
  %neg = fmul double %27, %57
  %58 = tail call double @llvm.fmuladd.f64(double %21, double %43, double %neg)
  %59 = tail call double @llvm.fmuladd.f64(double %58, double -8.050000e+01, double %56)
  %arrayidx335 = getelementptr inbounds [163 x [163 x [5 x double]]], [163 x [163 x [5 x double]]]* %9, i64 %idxprom, i64 1, i64 %idxprom9, i64 2
  %60 = load double, double* %arrayidx335, align 8, !tbaa !7
  %61 = tail call double @llvm.fmuladd.f64(double %17, double -2.000000e+00, double %22)
  %add339 = fadd double %12, %61
  %62 = tail call double @llvm.fmuladd.f64(double %add339, double 0x40D2FC3000000001, double %60)
  %63 = tail call double @llvm.fmuladd.f64(double %28, double -2.000000e+00, double %43)
  %add340 = fadd double %27, %63
  %64 = tail call double @llvm.fmuladd.f64(double %add340, double 0x40AB004444444445, double %62)
  %65 = fneg double %12
  %neg344 = fmul double %27, %65
  %66 = tail call double @llvm.fmuladd.f64(double %22, double %43, double %neg344)
  %sub346 = fsub double %24, %47
  %sub348 = fsub double %sub346, %14
  %add349 = fadd double %35, %sub348
  %67 = tail call double @llvm.fmuladd.f64(double %add349, double 4.000000e-01, double %66)
  %68 = tail call double @llvm.fmuladd.f64(double %67, double -8.050000e+01, double %64)
  %arrayidx357 = getelementptr inbounds [163 x [163 x [5 x double]]], [163 x [163 x [5 x double]]]* %9, i64 %idxprom, i64 1, i64 %idxprom9, i64 3
  %69 = load double, double* %arrayidx357, align 8, !tbaa !7
  %70 = tail call double @llvm.fmuladd.f64(double %18, double -2.000000e+00, double %23)
  %add361 = fadd double %13, %70
  %71 = tail call double @llvm.fmuladd.f64(double %add361, double 0x40D2FC3000000001, double %69)
  %72 = tail call double @llvm.fmuladd.f64(double %30, double -2.000000e+00, double %44)
  %add362 = fadd double %29, %72
  %73 = tail call double @llvm.fmuladd.f64(double %add362, double 0x40A4403333333334, double %71)
  %74 = fneg double %13
  %neg366 = fmul double %27, %74
  %75 = tail call double @llvm.fmuladd.f64(double %23, double %43, double %neg366)
  %76 = tail call double @llvm.fmuladd.f64(double %75, double -8.050000e+01, double %73)
  %arrayidx374 = getelementptr inbounds [163 x [163 x [5 x double]]], [163 x [163 x [5 x double]]]* %9, i64 %idxprom, i64 1, i64 %idxprom9, i64 4
  %77 = load double, double* %arrayidx374, align 8, !tbaa !7
  %78 = tail call double @llvm.fmuladd.f64(double %19, double -2.000000e+00, double %24)
  %add378 = fadd double %14, %78
  %79 = tail call double @llvm.fmuladd.f64(double %add378, double 0x40D2FC3000000001, double %77)
  %80 = tail call double @llvm.fmuladd.f64(double %32, double -2.000000e+00, double %45)
  %add379 = fadd double %31, %80
  %81 = tail call double @llvm.fmuladd.f64(double %add379, double 0xC0A370D4FDF3B645, double %79)
  %82 = fmul double %28, -2.000000e+00
  %neg382 = fmul double %28, %82
  %83 = tail call double @llvm.fmuladd.f64(double %43, double %43, double %neg382)
  %84 = tail call double @llvm.fmuladd.f64(double %27, double %27, double %83)
  %85 = tail call double @llvm.fmuladd.f64(double %84, double 0x407B004444444445, double %81)
  %86 = fmul double %19, -2.000000e+00
  %neg387 = fmul double %86, %34
  %87 = tail call double @llvm.fmuladd.f64(double %24, double %46, double %neg387)
  %88 = tail call double @llvm.fmuladd.f64(double %14, double %33, double %87)
  %89 = tail call double @llvm.fmuladd.f64(double %88, double 0x40B3D884189374BC, double %85)
  %neg391 = fmul double %47, -4.000000e-01
  %90 = tail call double @llvm.fmuladd.f64(double %24, double 1.400000e+00, double %neg391)
  %neg395 = fmul double %35, -4.000000e-01
  %91 = tail call double @llvm.fmuladd.f64(double %14, double 1.400000e+00, double %neg395)
  %92 = fneg double %91
  %neg397 = fmul double %27, %92
  %93 = tail call double @llvm.fmuladd.f64(double %90, double %43, double %neg397)
  %94 = tail call double @llvm.fmuladd.f64(double %93, double -8.050000e+01, double %89)
  %neg408 = fmul double %20, -4.000000e+00
  %95 = tail call double @llvm.fmuladd.f64(double %15, double 5.000000e+00, double %neg408)
  %add411 = fadd double %37, %95
  %96 = tail call double @llvm.fmuladd.f64(double %add411, double -2.500000e-01, double %51)
  store double %96, double* %arrayidx304, align 8, !tbaa !7
  %neg408.1 = fmul double %21, -4.000000e+00
  %97 = tail call double @llvm.fmuladd.f64(double %16, double 5.000000e+00, double %neg408.1)
  %add411.1 = fadd double %38, %97
  %98 = tail call double @llvm.fmuladd.f64(double %add411.1, double -2.500000e-01, double %59)
  store double %98, double* %arrayidx319, align 8, !tbaa !7
  %neg408.2 = fmul double %22, -4.000000e+00
  %99 = tail call double @llvm.fmuladd.f64(double %17, double 5.000000e+00, double %neg408.2)
  %add411.2 = fadd double %39, %99
  %100 = tail call double @llvm.fmuladd.f64(double %add411.2, double -2.500000e-01, double %68)
  store double %100, double* %arrayidx335, align 8, !tbaa !7
  %neg408.3 = fmul double %23, -4.000000e+00
  %101 = tail call double @llvm.fmuladd.f64(double %18, double 5.000000e+00, double %neg408.3)
  %add411.3 = fadd double %40, %101
  %102 = tail call double @llvm.fmuladd.f64(double %add411.3, double -2.500000e-01, double %76)
  store double %102, double* %arrayidx357, align 8, !tbaa !7
  %neg408.4 = fmul double %24, -4.000000e+00
  %103 = tail call double @llvm.fmuladd.f64(double %19, double 5.000000e+00, double %neg408.4)
  %add411.4 = fadd double %41, %103
  %104 = tail call double @llvm.fmuladd.f64(double %add411.4, double -2.500000e-01, double %94)
  store double %104, double* %arrayidx374, align 8, !tbaa !7
  %arrayidx467 = getelementptr inbounds [163 x [163 x [5 x double]]], [163 x [163 x [5 x double]]]* %8, i64 %idxprom, i64 4, i64 %idxprom9, i64 0
  %105 = load double, double* %arrayidx467, align 8, !tbaa !7
  %arrayidx476 = getelementptr inbounds [163 x [163 x [5 x double]]], [163 x [163 x [5 x double]]]* %8, i64 %idxprom, i64 4, i64 %idxprom9, i64 1
  %106 = load double, double* %arrayidx476, align 8, !tbaa !7
  %arrayidx485 = getelementptr inbounds [163 x [163 x [5 x double]]], [163 x [163 x [5 x double]]]* %8, i64 %idxprom, i64 4, i64 %idxprom9, i64 2
  %107 = load double, double* %arrayidx485, align 8, !tbaa !7
  %arrayidx494 = getelementptr inbounds [163 x [163 x [5 x double]]], [163 x [163 x [5 x double]]]* %8, i64 %idxprom, i64 4, i64 %idxprom9, i64 3
  %108 = load double, double* %arrayidx494, align 8, !tbaa !7
  %arrayidx503 = getelementptr inbounds [163 x [163 x [5 x double]]], [163 x [163 x [5 x double]]]* %8, i64 %idxprom, i64 4, i64 %idxprom9, i64 4
  %109 = load double, double* %arrayidx503, align 8, !tbaa !7
  %arrayidx511 = getelementptr inbounds [163 x [163 x double]], [163 x [163 x double]]* %2, i64 %idxprom, i64 3, i64 %idxprom9
  %110 = load double, double* %arrayidx511, align 8, !tbaa !7
  %arrayidx518 = getelementptr inbounds [163 x [163 x double]], [163 x [163 x double]]* %3, i64 %idxprom, i64 3, i64 %idxprom9
  %111 = load double, double* %arrayidx518, align 8, !tbaa !7
  %arrayidx525 = getelementptr inbounds [163 x [163 x double]], [163 x [163 x double]]* %4, i64 %idxprom, i64 3, i64 %idxprom9
  %112 = load double, double* %arrayidx525, align 8, !tbaa !7
  %arrayidx532 = getelementptr inbounds [163 x [163 x double]], [163 x [163 x double]]* %5, i64 %idxprom, i64 3, i64 %idxprom9
  %113 = load double, double* %arrayidx532, align 8, !tbaa !7
  %arrayidx539 = getelementptr inbounds [163 x [163 x double]], [163 x [163 x double]]* %6, i64 %idxprom, i64 3, i64 %idxprom9
  %114 = load double, double* %arrayidx539, align 8, !tbaa !7
  %arrayidx546 = getelementptr inbounds [163 x [163 x double]], [163 x [163 x double]]* %7, i64 %idxprom, i64 3, i64 %idxprom9
  %115 = load double, double* %arrayidx546, align 8, !tbaa !7
  %arrayidx553 = getelementptr inbounds [163 x [163 x [5 x double]]], [163 x [163 x [5 x double]]]* %9, i64 %idxprom, i64 2, i64 %idxprom9, i64 0
  %116 = load double, double* %arrayidx553, align 8, !tbaa !7
  %117 = tail call double @llvm.fmuladd.f64(double %20, double -2.000000e+00, double %37)
  %add557 = fadd double %15, %117
  %118 = tail call double @llvm.fmuladd.f64(double %add557, double 0x40D2FC3000000001, double %116)
  %sub560 = fsub double %39, %17
  %119 = tail call double @llvm.fmuladd.f64(double %sub560, double -8.050000e+01, double %118)
  %arrayidx568 = getelementptr inbounds [163 x [163 x [5 x double]]], [163 x [163 x [5 x double]]]* %9, i64 %idxprom, i64 2, i64 %idxprom9, i64 1
  %120 = load double, double* %arrayidx568, align 8, !tbaa !7
  %121 = tail call double @llvm.fmuladd.f64(double %21, double -2.000000e+00, double %38)
  %add572 = fadd double %16, %121
  %122 = tail call double @llvm.fmuladd.f64(double %add572, double 0x40D2FC3000000001, double %120)
  %123 = tail call double @llvm.fmuladd.f64(double %42, double -2.000000e+00, double %110)
  %add573 = fadd double %26, %123
  %124 = tail call double @llvm.fmuladd.f64(double %add573, double 0x40A4403333333334, double %122)
  %125 = fneg double %16
  %neg577 = fmul double %28, %125
  %126 = tail call double @llvm.fmuladd.f64(double %38, double %111, double %neg577)
  %127 = tail call double @llvm.fmuladd.f64(double %126, double -8.050000e+01, double %124)
  %arrayidx585 = getelementptr inbounds [163 x [163 x [5 x double]]], [163 x [163 x [5 x double]]]* %9, i64 %idxprom, i64 2, i64 %idxprom9, i64 2
  %128 = load double, double* %arrayidx585, align 8, !tbaa !7
  %129 = tail call double @llvm.fmuladd.f64(double %22, double -2.000000e+00, double %39)
  %add589 = fadd double %17, %129
  %130 = tail call double @llvm.fmuladd.f64(double %add589, double 0x40D2FC3000000001, double %128)
  %131 = tail call double @llvm.fmuladd.f64(double %43, double -2.000000e+00, double %111)
  %add590 = fadd double %28, %131
  %132 = tail call double @llvm.fmuladd.f64(double %add590, double 0x40AB004444444445, double %130)
  %133 = fneg double %17
  %neg594 = fmul double %28, %133
  %134 = tail call double @llvm.fmuladd.f64(double %39, double %111, double %neg594)
  %sub596 = fsub double %41, %115
  %sub598 = fsub double %sub596, %19
  %add599 = fadd double %36, %sub598
  %135 = tail call double @llvm.fmuladd.f64(double %add599, double 4.000000e-01, double %134)
  %136 = tail call double @llvm.fmuladd.f64(double %135, double -8.050000e+01, double %132)
  %arrayidx607 = getelementptr inbounds [163 x [163 x [5 x double]]], [163 x [163 x [5 x double]]]* %9, i64 %idxprom, i64 2, i64 %idxprom9, i64 3
  %137 = load double, double* %arrayidx607, align 8, !tbaa !7
  %138 = tail call double @llvm.fmuladd.f64(double %23, double -2.000000e+00, double %40)
  %add611 = fadd double %18, %138
  %139 = tail call double @llvm.fmuladd.f64(double %add611, double 0x40D2FC3000000001, double %137)
  %140 = tail call double @llvm.fmuladd.f64(double %44, double -2.000000e+00, double %112)
  %add612 = fadd double %30, %140
  %141 = tail call double @llvm.fmuladd.f64(double %add612, double 0x40A4403333333334, double %139)
  %142 = fneg double %18
  %neg616 = fmul double %28, %142
  %143 = tail call double @llvm.fmuladd.f64(double %40, double %111, double %neg616)
  %144 = tail call double @llvm.fmuladd.f64(double %143, double -8.050000e+01, double %141)
  %arrayidx624 = getelementptr inbounds [163 x [163 x [5 x double]]], [163 x [163 x [5 x double]]]* %9, i64 %idxprom, i64 2, i64 %idxprom9, i64 4
  %145 = load double, double* %arrayidx624, align 8, !tbaa !7
  %146 = tail call double @llvm.fmuladd.f64(double %24, double -2.000000e+00, double %41)
  %add628 = fadd double %19, %146
  %147 = tail call double @llvm.fmuladd.f64(double %add628, double 0x40D2FC3000000001, double %145)
  %148 = tail call double @llvm.fmuladd.f64(double %45, double -2.000000e+00, double %113)
  %add629 = fadd double %32, %148
  %149 = tail call double @llvm.fmuladd.f64(double %add629, double 0xC0A370D4FDF3B645, double %147)
  %150 = fmul double %43, -2.000000e+00
  %neg632 = fmul double %43, %150
  %151 = tail call double @llvm.fmuladd.f64(double %111, double %111, double %neg632)
  %152 = tail call double @llvm.fmuladd.f64(double %28, double %28, double %151)
  %153 = tail call double @llvm.fmuladd.f64(double %152, double 0x407B004444444445, double %149)
  %154 = fmul double %24, -2.000000e+00
  %neg637 = fmul double %154, %46
  %155 = tail call double @llvm.fmuladd.f64(double %41, double %114, double %neg637)
  %156 = tail call double @llvm.fmuladd.f64(double %19, double %34, double %155)
  %157 = tail call double @llvm.fmuladd.f64(double %156, double 0x40B3D884189374BC, double %153)
  %neg641 = fmul double %115, -4.000000e-01
  %158 = tail call double @llvm.fmuladd.f64(double %41, double 1.400000e+00, double %neg641)
  %neg645 = fmul double %36, -4.000000e-01
  %159 = tail call double @llvm.fmuladd.f64(double %19, double 1.400000e+00, double %neg645)
  %160 = fneg double %159
  %neg647 = fmul double %28, %160
  %161 = tail call double @llvm.fmuladd.f64(double %158, double %111, double %neg647)
  %162 = tail call double @llvm.fmuladd.f64(double %161, double -8.050000e+01, double %157)
  %mul659 = fmul double %20, 6.000000e+00
  %163 = tail call double @llvm.fmuladd.f64(double %15, double -4.000000e+00, double %mul659)
  %164 = tail call double @llvm.fmuladd.f64(double %37, double -4.000000e+00, double %163)
  %add664 = fadd double %105, %164
  %165 = tail call double @llvm.fmuladd.f64(double %add664, double -2.500000e-01, double %119)
  store double %165, double* %arrayidx553, align 8, !tbaa !7
  %mul659.1 = fmul double %21, 6.000000e+00
  %166 = tail call double @llvm.fmuladd.f64(double %16, double -4.000000e+00, double %mul659.1)
  %167 = tail call double @llvm.fmuladd.f64(double %38, double -4.000000e+00, double %166)
  %add664.1 = fadd double %106, %167
  %168 = tail call double @llvm.fmuladd.f64(double %add664.1, double -2.500000e-01, double %127)
  store double %168, double* %arrayidx568, align 8, !tbaa !7
  %mul659.2 = fmul double %22, 6.000000e+00
  %169 = tail call double @llvm.fmuladd.f64(double %17, double -4.000000e+00, double %mul659.2)
  %170 = tail call double @llvm.fmuladd.f64(double %39, double -4.000000e+00, double %169)
  %add664.2 = fadd double %107, %170
  %171 = tail call double @llvm.fmuladd.f64(double %add664.2, double -2.500000e-01, double %136)
  store double %171, double* %arrayidx585, align 8, !tbaa !7
  %mul659.3 = fmul double %23, 6.000000e+00
  %172 = tail call double @llvm.fmuladd.f64(double %18, double -4.000000e+00, double %mul659.3)
  %173 = tail call double @llvm.fmuladd.f64(double %40, double -4.000000e+00, double %172)
  %add664.3 = fadd double %108, %173
  %174 = tail call double @llvm.fmuladd.f64(double %add664.3, double -2.500000e-01, double %144)
  store double %174, double* %arrayidx607, align 8, !tbaa !7
  %mul659.4 = fmul double %24, 6.000000e+00
  %175 = tail call double @llvm.fmuladd.f64(double %19, double -4.000000e+00, double %mul659.4)
  %176 = tail call double @llvm.fmuladd.f64(double %41, double -4.000000e+00, double %175)
  %add664.4 = fadd double %109, %176
  %177 = tail call double @llvm.fmuladd.f64(double %add664.4, double -2.500000e-01, double %162)
  store double %177, double* %arrayidx624, align 8, !tbaa !7
  %cmp678.not2105 = icmp slt i32 %gp1, 7
  %.pre2323 = add nsw i32 %gp1, -3
  br i1 %cmp678.not2105, label %for.end940, label %for.body680.preheader

for.body680.preheader:                            ; preds = %if.end
  %wide.trip.count = zext i32 %.pre2323 to i64
  br label %for.body680

for.body680:                                      ; preds = %for.body680.preheader, %for.body680
  %p_u.sroa.54.0 = phi double [ %24, %for.body680.preheader ], [ %p_up1.sroa.50.0, %for.body680 ]
  %p_u.sroa.41.0 = phi double [ %23, %for.body680.preheader ], [ %p_up1.sroa.38.0, %for.body680 ]
  %p_u.sroa.28.0 = phi double [ %22, %for.body680.preheader ], [ %p_up1.sroa.26.0, %for.body680 ]
  %p_u.sroa.15.0 = phi double [ %21, %for.body680.preheader ], [ %p_up1.sroa.14.0, %for.body680 ]
  %p_u.sroa.0.0 = phi double [ %20, %for.body680.preheader ], [ %p_up1.sroa.0.0, %for.body680 ]
  %p_up1.sroa.50.0 = phi double [ %41, %for.body680.preheader ], [ %p_up2.sroa.42.0, %for.body680 ]
  %p_up1.sroa.38.0 = phi double [ %40, %for.body680.preheader ], [ %p_up2.sroa.32.0, %for.body680 ]
  %p_up1.sroa.26.0 = phi double [ %39, %for.body680.preheader ], [ %p_up2.sroa.22.0, %for.body680 ]
  %p_up1.sroa.14.0 = phi double [ %38, %for.body680.preheader ], [ %p_up2.sroa.12.0, %for.body680 ]
  %p_up1.sroa.0.0 = phi double [ %37, %for.body680.preheader ], [ %p_up2.sroa.0.0, %for.body680 ]
  %p_up2.sroa.42.0 = phi double [ %109, %for.body680.preheader ], [ %183, %for.body680 ]
  %p_up2.sroa.32.0 = phi double [ %108, %for.body680.preheader ], [ %182, %for.body680 ]
  %p_up2.sroa.22.0 = phi double [ %107, %for.body680.preheader ], [ %181, %for.body680 ]
  %p_up2.sroa.12.0 = phi double [ %106, %for.body680.preheader ], [ %180, %for.body680 ]
  %p_up2.sroa.0.0 = phi double [ %105, %for.body680.preheader ], [ %179, %for.body680 ]
  %p_um1.sroa.0.0 = phi double [ %15, %for.body680.preheader ], [ %p_u.sroa.0.0, %for.body680 ]
  %p_um1.sroa.15.0 = phi double [ %16, %for.body680.preheader ], [ %p_u.sroa.15.0, %for.body680 ]
  %p_um1.sroa.27.0 = phi double [ %17, %for.body680.preheader ], [ %p_u.sroa.28.0, %for.body680 ]
  %p_um1.sroa.39.0 = phi double [ %18, %for.body680.preheader ], [ %p_u.sroa.41.0, %for.body680 ]
  %p_um1.sroa.51.0 = phi double [ %19, %for.body680.preheader ], [ %p_u.sroa.54.0, %for.body680 ]
  %indvars.iv = phi i64 [ 3, %for.body680.preheader ], [ %indvars.iv.next, %for.body680 ]
  %p_us.02117 = phi double [ %42, %for.body680.preheader ], [ %p_usp1.02116, %for.body680 ]
  %p_usp1.02116 = phi double [ %110, %for.body680.preheader ], [ %184, %for.body680 ]
  %p_vs.02115 = phi double [ %43, %for.body680.preheader ], [ %p_vsp1.02114, %for.body680 ]
  %p_vsp1.02114 = phi double [ %111, %for.body680.preheader ], [ %185, %for.body680 ]
  %p_squarep1.02113 = phi double [ %115, %for.body680.preheader ], [ %189, %for.body680 ]
  %p_square.02112 = phi double [ %47, %for.body680.preheader ], [ %p_squarep1.02113, %for.body680 ]
  %p_rho_ip1.02111 = phi double [ %114, %for.body680.preheader ], [ %188, %for.body680 ]
  %p_rho_i.02110 = phi double [ %46, %for.body680.preheader ], [ %p_rho_ip1.02111, %for.body680 ]
  %p_qsp1.02109 = phi double [ %113, %for.body680.preheader ], [ %187, %for.body680 ]
  %p_qs.02108 = phi double [ %45, %for.body680.preheader ], [ %p_qsp1.02109, %for.body680 ]
  %p_wsp1.02107 = phi double [ %112, %for.body680.preheader ], [ %186, %for.body680 ]
  %p_ws.02106 = phi double [ %44, %for.body680.preheader ], [ %p_wsp1.02107, %for.body680 ]
  %178 = add nuw nsw i64 %indvars.iv, 2
  %arrayidx728 = getelementptr inbounds [163 x [163 x [5 x double]]], [163 x [163 x [5 x double]]]* %8, i64 %idxprom, i64 %178, i64 %idxprom9, i64 0
  %179 = load double, double* %arrayidx728, align 8, !tbaa !7
  %arrayidx737 = getelementptr inbounds [163 x [163 x [5 x double]]], [163 x [163 x [5 x double]]]* %8, i64 %idxprom, i64 %178, i64 %idxprom9, i64 1
  %180 = load double, double* %arrayidx737, align 8, !tbaa !7
  %arrayidx746 = getelementptr inbounds [163 x [163 x [5 x double]]], [163 x [163 x [5 x double]]]* %8, i64 %idxprom, i64 %178, i64 %idxprom9, i64 2
  %181 = load double, double* %arrayidx746, align 8, !tbaa !7
  %arrayidx755 = getelementptr inbounds [163 x [163 x [5 x double]]], [163 x [163 x [5 x double]]]* %8, i64 %idxprom, i64 %178, i64 %idxprom9, i64 3
  %182 = load double, double* %arrayidx755, align 8, !tbaa !7
  %arrayidx764 = getelementptr inbounds [163 x [163 x [5 x double]]], [163 x [163 x [5 x double]]]* %8, i64 %idxprom, i64 %178, i64 %idxprom9, i64 4
  %183 = load double, double* %arrayidx764, align 8, !tbaa !7
  %indvars.iv.next = add nuw nsw i64 %indvars.iv, 1
  %arrayidx772 = getelementptr inbounds [163 x [163 x double]], [163 x [163 x double]]* %2, i64 %idxprom, i64 %indvars.iv.next, i64 %idxprom9
  %184 = load double, double* %arrayidx772, align 8, !tbaa !7
  %arrayidx779 = getelementptr inbounds [163 x [163 x double]], [163 x [163 x double]]* %3, i64 %idxprom, i64 %indvars.iv.next, i64 %idxprom9
  %185 = load double, double* %arrayidx779, align 8, !tbaa !7
  %arrayidx786 = getelementptr inbounds [163 x [163 x double]], [163 x [163 x double]]* %4, i64 %idxprom, i64 %indvars.iv.next, i64 %idxprom9
  %186 = load double, double* %arrayidx786, align 8, !tbaa !7
  %arrayidx793 = getelementptr inbounds [163 x [163 x double]], [163 x [163 x double]]* %5, i64 %idxprom, i64 %indvars.iv.next, i64 %idxprom9
  %187 = load double, double* %arrayidx793, align 8, !tbaa !7
  %arrayidx800 = getelementptr inbounds [163 x [163 x double]], [163 x [163 x double]]* %6, i64 %idxprom, i64 %indvars.iv.next, i64 %idxprom9
  %188 = load double, double* %arrayidx800, align 8, !tbaa !7
  %arrayidx807 = getelementptr inbounds [163 x [163 x double]], [163 x [163 x double]]* %7, i64 %idxprom, i64 %indvars.iv.next, i64 %idxprom9
  %189 = load double, double* %arrayidx807, align 8, !tbaa !7
  %arrayidx814 = getelementptr inbounds [163 x [163 x [5 x double]]], [163 x [163 x [5 x double]]]* %9, i64 %idxprom, i64 %indvars.iv, i64 %idxprom9, i64 0
  %190 = load double, double* %arrayidx814, align 8, !tbaa !7
  %191 = tail call double @llvm.fmuladd.f64(double %p_up1.sroa.0.0, double -2.000000e+00, double %p_up2.sroa.0.0)
  %add818 = fadd double %p_u.sroa.0.0, %191
  %192 = tail call double @llvm.fmuladd.f64(double %add818, double 0x40D2FC3000000001, double %190)
  %sub821 = fsub double %p_up2.sroa.22.0, %p_u.sroa.28.0
  %193 = tail call double @llvm.fmuladd.f64(double %sub821, double -8.050000e+01, double %192)
  %arrayidx829 = getelementptr inbounds [163 x [163 x [5 x double]]], [163 x [163 x [5 x double]]]* %9, i64 %idxprom, i64 %indvars.iv, i64 %idxprom9, i64 1
  %194 = load double, double* %arrayidx829, align 8, !tbaa !7
  %195 = tail call double @llvm.fmuladd.f64(double %p_up1.sroa.14.0, double -2.000000e+00, double %p_up2.sroa.12.0)
  %add833 = fadd double %p_u.sroa.15.0, %195
  %196 = tail call double @llvm.fmuladd.f64(double %add833, double 0x40D2FC3000000001, double %194)
  %197 = tail call double @llvm.fmuladd.f64(double %p_usp1.02116, double -2.000000e+00, double %184)
  %add834 = fadd double %p_us.02117, %197
  %198 = tail call double @llvm.fmuladd.f64(double %add834, double 0x40A4403333333334, double %196)
  %199 = fneg double %p_u.sroa.15.0
  %neg838 = fmul double %p_vs.02115, %199
  %200 = tail call double @llvm.fmuladd.f64(double %p_up2.sroa.12.0, double %185, double %neg838)
  %201 = tail call double @llvm.fmuladd.f64(double %200, double -8.050000e+01, double %198)
  %arrayidx846 = getelementptr inbounds [163 x [163 x [5 x double]]], [163 x [163 x [5 x double]]]* %9, i64 %idxprom, i64 %indvars.iv, i64 %idxprom9, i64 2
  %202 = load double, double* %arrayidx846, align 8, !tbaa !7
  %203 = tail call double @llvm.fmuladd.f64(double %p_up1.sroa.26.0, double -2.000000e+00, double %p_up2.sroa.22.0)
  %add850 = fadd double %p_u.sroa.28.0, %203
  %204 = tail call double @llvm.fmuladd.f64(double %add850, double 0x40D2FC3000000001, double %202)
  %205 = tail call double @llvm.fmuladd.f64(double %p_vsp1.02114, double -2.000000e+00, double %185)
  %add851 = fadd double %p_vs.02115, %205
  %206 = tail call double @llvm.fmuladd.f64(double %add851, double 0x40AB004444444445, double %204)
  %207 = fneg double %p_u.sroa.28.0
  %neg855 = fmul double %p_vs.02115, %207
  %208 = tail call double @llvm.fmuladd.f64(double %p_up2.sroa.22.0, double %185, double %neg855)
  %sub857 = fsub double %p_up2.sroa.42.0, %189
  %sub859 = fsub double %sub857, %p_u.sroa.54.0
  %add860 = fadd double %p_square.02112, %sub859
  %209 = tail call double @llvm.fmuladd.f64(double %add860, double 4.000000e-01, double %208)
  %210 = tail call double @llvm.fmuladd.f64(double %209, double -8.050000e+01, double %206)
  %arrayidx868 = getelementptr inbounds [163 x [163 x [5 x double]]], [163 x [163 x [5 x double]]]* %9, i64 %idxprom, i64 %indvars.iv, i64 %idxprom9, i64 3
  %211 = load double, double* %arrayidx868, align 8, !tbaa !7
  %212 = tail call double @llvm.fmuladd.f64(double %p_up1.sroa.38.0, double -2.000000e+00, double %p_up2.sroa.32.0)
  %add872 = fadd double %p_u.sroa.41.0, %212
  %213 = tail call double @llvm.fmuladd.f64(double %add872, double 0x40D2FC3000000001, double %211)
  %214 = tail call double @llvm.fmuladd.f64(double %p_wsp1.02107, double -2.000000e+00, double %186)
  %add873 = fadd double %p_ws.02106, %214
  %215 = tail call double @llvm.fmuladd.f64(double %add873, double 0x40A4403333333334, double %213)
  %216 = fneg double %p_u.sroa.41.0
  %neg877 = fmul double %p_vs.02115, %216
  %217 = tail call double @llvm.fmuladd.f64(double %p_up2.sroa.32.0, double %185, double %neg877)
  %218 = tail call double @llvm.fmuladd.f64(double %217, double -8.050000e+01, double %215)
  %arrayidx885 = getelementptr inbounds [163 x [163 x [5 x double]]], [163 x [163 x [5 x double]]]* %9, i64 %idxprom, i64 %indvars.iv, i64 %idxprom9, i64 4
  %219 = load double, double* %arrayidx885, align 8, !tbaa !7
  %220 = tail call double @llvm.fmuladd.f64(double %p_up1.sroa.50.0, double -2.000000e+00, double %p_up2.sroa.42.0)
  %add889 = fadd double %p_u.sroa.54.0, %220
  %221 = tail call double @llvm.fmuladd.f64(double %add889, double 0x40D2FC3000000001, double %219)
  %222 = tail call double @llvm.fmuladd.f64(double %p_qsp1.02109, double -2.000000e+00, double %187)
  %add890 = fadd double %p_qs.02108, %222
  %223 = tail call double @llvm.fmuladd.f64(double %add890, double 0xC0A370D4FDF3B645, double %221)
  %224 = fmul double %p_vsp1.02114, -2.000000e+00
  %neg893 = fmul double %p_vsp1.02114, %224
  %225 = tail call double @llvm.fmuladd.f64(double %185, double %185, double %neg893)
  %226 = tail call double @llvm.fmuladd.f64(double %p_vs.02115, double %p_vs.02115, double %225)
  %227 = tail call double @llvm.fmuladd.f64(double %226, double 0x407B004444444445, double %223)
  %228 = fmul double %p_up1.sroa.50.0, -2.000000e+00
  %neg898 = fmul double %p_rho_ip1.02111, %228
  %229 = tail call double @llvm.fmuladd.f64(double %p_up2.sroa.42.0, double %188, double %neg898)
  %230 = tail call double @llvm.fmuladd.f64(double %p_u.sroa.54.0, double %p_rho_i.02110, double %229)
  %231 = tail call double @llvm.fmuladd.f64(double %230, double 0x40B3D884189374BC, double %227)
  %neg902 = fmul double %189, -4.000000e-01
  %232 = tail call double @llvm.fmuladd.f64(double %p_up2.sroa.42.0, double 1.400000e+00, double %neg902)
  %neg906 = fmul double %p_square.02112, -4.000000e-01
  %233 = tail call double @llvm.fmuladd.f64(double %p_u.sroa.54.0, double 1.400000e+00, double %neg906)
  %234 = fneg double %233
  %neg908 = fmul double %p_vs.02115, %234
  %235 = tail call double @llvm.fmuladd.f64(double %232, double %185, double %neg908)
  %236 = tail call double @llvm.fmuladd.f64(double %235, double -8.050000e+01, double %231)
  %237 = tail call double @llvm.fmuladd.f64(double %p_u.sroa.0.0, double -4.000000e+00, double %p_um1.sroa.0.0)
  %238 = tail call double @llvm.fmuladd.f64(double %p_up1.sroa.0.0, double 6.000000e+00, double %237)
  %239 = tail call double @llvm.fmuladd.f64(double %p_up2.sroa.0.0, double -4.000000e+00, double %238)
  %add926 = fadd double %239, %179
  %240 = tail call double @llvm.fmuladd.f64(double %add926, double -2.500000e-01, double %193)
  store double %240, double* %arrayidx814, align 8, !tbaa !7
  %241 = tail call double @llvm.fmuladd.f64(double %p_u.sroa.15.0, double -4.000000e+00, double %p_um1.sroa.15.0)
  %242 = tail call double @llvm.fmuladd.f64(double %p_up1.sroa.14.0, double 6.000000e+00, double %241)
  %243 = tail call double @llvm.fmuladd.f64(double %p_up2.sroa.12.0, double -4.000000e+00, double %242)
  %add926.1 = fadd double %243, %180
  %244 = tail call double @llvm.fmuladd.f64(double %add926.1, double -2.500000e-01, double %201)
  store double %244, double* %arrayidx829, align 8, !tbaa !7
  %245 = tail call double @llvm.fmuladd.f64(double %p_u.sroa.28.0, double -4.000000e+00, double %p_um1.sroa.27.0)
  %246 = tail call double @llvm.fmuladd.f64(double %p_up1.sroa.26.0, double 6.000000e+00, double %245)
  %247 = tail call double @llvm.fmuladd.f64(double %p_up2.sroa.22.0, double -4.000000e+00, double %246)
  %add926.2 = fadd double %247, %181
  %248 = tail call double @llvm.fmuladd.f64(double %add926.2, double -2.500000e-01, double %210)
  store double %248, double* %arrayidx846, align 8, !tbaa !7
  %249 = tail call double @llvm.fmuladd.f64(double %p_u.sroa.41.0, double -4.000000e+00, double %p_um1.sroa.39.0)
  %250 = tail call double @llvm.fmuladd.f64(double %p_up1.sroa.38.0, double 6.000000e+00, double %249)
  %251 = tail call double @llvm.fmuladd.f64(double %p_up2.sroa.32.0, double -4.000000e+00, double %250)
  %add926.3 = fadd double %251, %182
  %252 = tail call double @llvm.fmuladd.f64(double %add926.3, double -2.500000e-01, double %218)
  store double %252, double* %arrayidx868, align 8, !tbaa !7
  %253 = tail call double @llvm.fmuladd.f64(double %p_u.sroa.54.0, double -4.000000e+00, double %p_um1.sroa.51.0)
  %254 = tail call double @llvm.fmuladd.f64(double %p_up1.sroa.50.0, double 6.000000e+00, double %253)
  %255 = tail call double @llvm.fmuladd.f64(double %p_up2.sroa.42.0, double -4.000000e+00, double %254)
  %add926.4 = fadd double %255, %183
  %256 = tail call double @llvm.fmuladd.f64(double %add926.4, double -2.500000e-01, double %236)
  store double %256, double* %arrayidx885, align 8, !tbaa !7
  %exitcond.not = icmp eq i64 %indvars.iv.next, %wide.trip.count
  br i1 %exitcond.not, label %for.end940.loopexit, label %for.body680

for.end940.loopexit:                              ; preds = %for.body680
  %.pre = fmul double %p_squarep1.02113, -4.000000e-01
  %.pre2321 = tail call double @llvm.fmuladd.f64(double %p_up1.sroa.50.0, double 1.400000e+00, double %.pre)
  br label %for.end940

for.end940:                                       ; preds = %if.end, %for.end940.loopexit
  %.pre-phi2322 = phi double [ %232, %for.end940.loopexit ], [ %158, %if.end ]
  %.pre-phi = phi double [ %.pre2321, %for.end940.loopexit ], [ %90, %if.end ]
  %p_u.sroa.54.1 = phi double [ %p_up1.sroa.50.0, %for.end940.loopexit ], [ %24, %if.end ]
  %p_u.sroa.41.1 = phi double [ %p_up1.sroa.38.0, %for.end940.loopexit ], [ %23, %if.end ]
  %p_u.sroa.28.1 = phi double [ %p_up1.sroa.26.0, %for.end940.loopexit ], [ %22, %if.end ]
  %p_u.sroa.15.1 = phi double [ %p_up1.sroa.14.0, %for.end940.loopexit ], [ %21, %if.end ]
  %p_u.sroa.0.1 = phi double [ %p_up1.sroa.0.0, %for.end940.loopexit ], [ %20, %if.end ]
  %p_up1.sroa.50.1 = phi double [ %p_up2.sroa.42.0, %for.end940.loopexit ], [ %41, %if.end ]
  %p_up1.sroa.38.1 = phi double [ %p_up2.sroa.32.0, %for.end940.loopexit ], [ %40, %if.end ]
  %p_up1.sroa.26.1 = phi double [ %p_up2.sroa.22.0, %for.end940.loopexit ], [ %39, %if.end ]
  %p_up1.sroa.14.1 = phi double [ %p_up2.sroa.12.0, %for.end940.loopexit ], [ %38, %if.end ]
  %p_up1.sroa.0.1 = phi double [ %p_up2.sroa.0.0, %for.end940.loopexit ], [ %37, %if.end ]
  %p_up2.sroa.42.1 = phi double [ %183, %for.end940.loopexit ], [ %109, %if.end ]
  %p_up2.sroa.32.1 = phi double [ %182, %for.end940.loopexit ], [ %108, %if.end ]
  %p_up2.sroa.22.1 = phi double [ %181, %for.end940.loopexit ], [ %107, %if.end ]
  %p_up2.sroa.12.1 = phi double [ %180, %for.end940.loopexit ], [ %106, %if.end ]
  %p_up2.sroa.0.1 = phi double [ %179, %for.end940.loopexit ], [ %105, %if.end ]
  %p_um1.sroa.0.1 = phi double [ %p_u.sroa.0.0, %for.end940.loopexit ], [ %15, %if.end ]
  %p_um1.sroa.15.1 = phi double [ %p_u.sroa.15.0, %for.end940.loopexit ], [ %16, %if.end ]
  %p_um1.sroa.27.1 = phi double [ %p_u.sroa.28.0, %for.end940.loopexit ], [ %17, %if.end ]
  %p_um1.sroa.39.1 = phi double [ %p_u.sroa.41.0, %for.end940.loopexit ], [ %18, %if.end ]
  %p_um1.sroa.51.1 = phi double [ %p_u.sroa.54.0, %for.end940.loopexit ], [ %19, %if.end ]
  %p_ws.0.lcssa = phi double [ %p_wsp1.02107, %for.end940.loopexit ], [ %44, %if.end ]
  %p_wsp1.0.lcssa = phi double [ %186, %for.end940.loopexit ], [ %112, %if.end ]
  %p_qs.0.lcssa = phi double [ %p_qsp1.02109, %for.end940.loopexit ], [ %45, %if.end ]
  %p_qsp1.0.lcssa = phi double [ %187, %for.end940.loopexit ], [ %113, %if.end ]
  %p_rho_i.0.lcssa = phi double [ %p_rho_ip1.02111, %for.end940.loopexit ], [ %46, %if.end ]
  %p_rho_ip1.0.lcssa = phi double [ %188, %for.end940.loopexit ], [ %114, %if.end ]
  %p_square.0.lcssa = phi double [ %p_squarep1.02113, %for.end940.loopexit ], [ %47, %if.end ]
  %p_squarep1.0.lcssa = phi double [ %189, %for.end940.loopexit ], [ %115, %if.end ]
  %p_vsp1.0.lcssa = phi double [ %185, %for.end940.loopexit ], [ %111, %if.end ]
  %p_vs.0.lcssa = phi double [ %p_vsp1.02114, %for.end940.loopexit ], [ %43, %if.end ]
  %p_usp1.0.lcssa = phi double [ %184, %for.end940.loopexit ], [ %110, %if.end ]
  %p_us.0.lcssa = phi double [ %p_usp1.02116, %for.end940.loopexit ], [ %42, %if.end ]
  %add984 = add nsw i32 %gp1, -1
  %idxprom985 = sext i32 %add984 to i64
  %arrayidx989 = getelementptr inbounds [163 x [163 x [5 x double]]], [163 x [163 x [5 x double]]]* %8, i64 %idxprom, i64 %idxprom985, i64 %idxprom9, i64 0
  %257 = load double, double* %arrayidx989, align 8, !tbaa !7
  %arrayidx998 = getelementptr inbounds [163 x [163 x [5 x double]]], [163 x [163 x [5 x double]]]* %8, i64 %idxprom, i64 %idxprom985, i64 %idxprom9, i64 1
  %258 = load double, double* %arrayidx998, align 8, !tbaa !7
  %arrayidx1007 = getelementptr inbounds [163 x [163 x [5 x double]]], [163 x [163 x [5 x double]]]* %8, i64 %idxprom, i64 %idxprom985, i64 %idxprom9, i64 2
  %259 = load double, double* %arrayidx1007, align 8, !tbaa !7
  %arrayidx1016 = getelementptr inbounds [163 x [163 x [5 x double]]], [163 x [163 x [5 x double]]]* %8, i64 %idxprom, i64 %idxprom985, i64 %idxprom9, i64 3
  %260 = load double, double* %arrayidx1016, align 8, !tbaa !7
  %arrayidx1025 = getelementptr inbounds [163 x [163 x [5 x double]]], [163 x [163 x [5 x double]]]* %8, i64 %idxprom, i64 %idxprom985, i64 %idxprom9, i64 4
  %261 = load double, double* %arrayidx1025, align 8, !tbaa !7
  %add1029 = add nsw i32 %gp1, -2
  %idxprom1030 = sext i32 %add1029 to i64
  %arrayidx1033 = getelementptr inbounds [163 x [163 x double]], [163 x [163 x double]]* %2, i64 %idxprom, i64 %idxprom1030, i64 %idxprom9
  %262 = load double, double* %arrayidx1033, align 8, !tbaa !7
  %arrayidx1040 = getelementptr inbounds [163 x [163 x double]], [163 x [163 x double]]* %3, i64 %idxprom, i64 %idxprom1030, i64 %idxprom9
  %263 = load double, double* %arrayidx1040, align 8, !tbaa !7
  %arrayidx1047 = getelementptr inbounds [163 x [163 x double]], [163 x [163 x double]]* %4, i64 %idxprom, i64 %idxprom1030, i64 %idxprom9
  %264 = load double, double* %arrayidx1047, align 8, !tbaa !7
  %arrayidx1054 = getelementptr inbounds [163 x [163 x double]], [163 x [163 x double]]* %5, i64 %idxprom, i64 %idxprom1030, i64 %idxprom9
  %265 = load double, double* %arrayidx1054, align 8, !tbaa !7
  %arrayidx1061 = getelementptr inbounds [163 x [163 x double]], [163 x [163 x double]]* %6, i64 %idxprom, i64 %idxprom1030, i64 %idxprom9
  %266 = load double, double* %arrayidx1061, align 8, !tbaa !7
  %arrayidx1068 = getelementptr inbounds [163 x [163 x double]], [163 x [163 x double]]* %7, i64 %idxprom, i64 %idxprom1030, i64 %idxprom9
  %267 = load double, double* %arrayidx1068, align 8, !tbaa !7
  %idxprom1071 = sext i32 %.pre2323 to i64
  %arrayidx1075 = getelementptr inbounds [163 x [163 x [5 x double]]], [163 x [163 x [5 x double]]]* %9, i64 %idxprom, i64 %idxprom1071, i64 %idxprom9, i64 0
  %268 = load double, double* %arrayidx1075, align 8, !tbaa !7
  %269 = tail call double @llvm.fmuladd.f64(double %p_up1.sroa.0.1, double -2.000000e+00, double %p_up2.sroa.0.1)
  %add1079 = fadd double %p_u.sroa.0.1, %269
  %270 = tail call double @llvm.fmuladd.f64(double %add1079, double 0x40D2FC3000000001, double %268)
  %sub1082 = fsub double %p_up2.sroa.22.1, %p_u.sroa.28.1
  %271 = tail call double @llvm.fmuladd.f64(double %sub1082, double -8.050000e+01, double %270)
  %arrayidx1090 = getelementptr inbounds [163 x [163 x [5 x double]]], [163 x [163 x [5 x double]]]* %9, i64 %idxprom, i64 %idxprom1071, i64 %idxprom9, i64 1
  %272 = load double, double* %arrayidx1090, align 8, !tbaa !7
  %273 = tail call double @llvm.fmuladd.f64(double %p_up1.sroa.14.1, double -2.000000e+00, double %p_up2.sroa.12.1)
  %add1094 = fadd double %p_u.sroa.15.1, %273
  %274 = tail call double @llvm.fmuladd.f64(double %add1094, double 0x40D2FC3000000001, double %272)
  %275 = tail call double @llvm.fmuladd.f64(double %p_usp1.0.lcssa, double -2.000000e+00, double %262)
  %add1095 = fadd double %p_us.0.lcssa, %275
  %276 = tail call double @llvm.fmuladd.f64(double %add1095, double 0x40A4403333333334, double %274)
  %277 = fneg double %p_u.sroa.15.1
  %neg1099 = fmul double %p_vs.0.lcssa, %277
  %278 = tail call double @llvm.fmuladd.f64(double %p_up2.sroa.12.1, double %263, double %neg1099)
  %279 = tail call double @llvm.fmuladd.f64(double %278, double -8.050000e+01, double %276)
  %arrayidx1107 = getelementptr inbounds [163 x [163 x [5 x double]]], [163 x [163 x [5 x double]]]* %9, i64 %idxprom, i64 %idxprom1071, i64 %idxprom9, i64 2
  %280 = load double, double* %arrayidx1107, align 8, !tbaa !7
  %281 = tail call double @llvm.fmuladd.f64(double %p_up1.sroa.26.1, double -2.000000e+00, double %p_up2.sroa.22.1)
  %add1111 = fadd double %p_u.sroa.28.1, %281
  %282 = tail call double @llvm.fmuladd.f64(double %add1111, double 0x40D2FC3000000001, double %280)
  %283 = tail call double @llvm.fmuladd.f64(double %p_vsp1.0.lcssa, double -2.000000e+00, double %263)
  %add1112 = fadd double %p_vs.0.lcssa, %283
  %284 = tail call double @llvm.fmuladd.f64(double %add1112, double 0x40AB004444444445, double %282)
  %285 = fneg double %p_u.sroa.28.1
  %neg1116 = fmul double %p_vs.0.lcssa, %285
  %286 = tail call double @llvm.fmuladd.f64(double %p_up2.sroa.22.1, double %263, double %neg1116)
  %sub1118 = fsub double %p_up2.sroa.42.1, %267
  %sub1120 = fsub double %sub1118, %p_u.sroa.54.1
  %add1121 = fadd double %p_square.0.lcssa, %sub1120
  %287 = tail call double @llvm.fmuladd.f64(double %add1121, double 4.000000e-01, double %286)
  %288 = tail call double @llvm.fmuladd.f64(double %287, double -8.050000e+01, double %284)
  %arrayidx1129 = getelementptr inbounds [163 x [163 x [5 x double]]], [163 x [163 x [5 x double]]]* %9, i64 %idxprom, i64 %idxprom1071, i64 %idxprom9, i64 3
  %289 = load double, double* %arrayidx1129, align 8, !tbaa !7
  %290 = tail call double @llvm.fmuladd.f64(double %p_up1.sroa.38.1, double -2.000000e+00, double %p_up2.sroa.32.1)
  %add1133 = fadd double %p_u.sroa.41.1, %290
  %291 = tail call double @llvm.fmuladd.f64(double %add1133, double 0x40D2FC3000000001, double %289)
  %292 = tail call double @llvm.fmuladd.f64(double %p_wsp1.0.lcssa, double -2.000000e+00, double %264)
  %add1134 = fadd double %p_ws.0.lcssa, %292
  %293 = tail call double @llvm.fmuladd.f64(double %add1134, double 0x40A4403333333334, double %291)
  %294 = fneg double %p_u.sroa.41.1
  %neg1138 = fmul double %p_vs.0.lcssa, %294
  %295 = tail call double @llvm.fmuladd.f64(double %p_up2.sroa.32.1, double %263, double %neg1138)
  %296 = tail call double @llvm.fmuladd.f64(double %295, double -8.050000e+01, double %293)
  %arrayidx1146 = getelementptr inbounds [163 x [163 x [5 x double]]], [163 x [163 x [5 x double]]]* %9, i64 %idxprom, i64 %idxprom1071, i64 %idxprom9, i64 4
  %297 = load double, double* %arrayidx1146, align 8, !tbaa !7
  %298 = tail call double @llvm.fmuladd.f64(double %p_up1.sroa.50.1, double -2.000000e+00, double %p_up2.sroa.42.1)
  %add1150 = fadd double %p_u.sroa.54.1, %298
  %299 = tail call double @llvm.fmuladd.f64(double %add1150, double 0x40D2FC3000000001, double %297)
  %300 = tail call double @llvm.fmuladd.f64(double %p_qsp1.0.lcssa, double -2.000000e+00, double %265)
  %add1151 = fadd double %p_qs.0.lcssa, %300
  %301 = tail call double @llvm.fmuladd.f64(double %add1151, double 0xC0A370D4FDF3B645, double %299)
  %302 = fmul double %p_vsp1.0.lcssa, -2.000000e+00
  %neg1154 = fmul double %p_vsp1.0.lcssa, %302
  %303 = tail call double @llvm.fmuladd.f64(double %263, double %263, double %neg1154)
  %304 = tail call double @llvm.fmuladd.f64(double %p_vs.0.lcssa, double %p_vs.0.lcssa, double %303)
  %305 = tail call double @llvm.fmuladd.f64(double %304, double 0x407B004444444445, double %301)
  %306 = fmul double %p_up1.sroa.50.1, -2.000000e+00
  %neg1159 = fmul double %p_rho_ip1.0.lcssa, %306
  %307 = tail call double @llvm.fmuladd.f64(double %p_up2.sroa.42.1, double %266, double %neg1159)
  %308 = tail call double @llvm.fmuladd.f64(double %p_u.sroa.54.1, double %p_rho_i.0.lcssa, double %307)
  %309 = tail call double @llvm.fmuladd.f64(double %308, double 0x40B3D884189374BC, double %305)
  %neg1163 = fmul double %267, -4.000000e-01
  %310 = tail call double @llvm.fmuladd.f64(double %p_up2.sroa.42.1, double 1.400000e+00, double %neg1163)
  %311 = fneg double %.pre-phi
  %neg1169 = fmul double %p_vs.0.lcssa, %311
  %312 = tail call double @llvm.fmuladd.f64(double %310, double %263, double %neg1169)
  %313 = tail call double @llvm.fmuladd.f64(double %312, double -8.050000e+01, double %309)
  %314 = tail call double @llvm.fmuladd.f64(double %p_u.sroa.0.1, double -4.000000e+00, double %p_um1.sroa.0.1)
  %315 = tail call double @llvm.fmuladd.f64(double %p_up1.sroa.0.1, double 6.000000e+00, double %314)
  %316 = tail call double @llvm.fmuladd.f64(double %p_up2.sroa.0.1, double -4.000000e+00, double %315)
  %317 = tail call double @llvm.fmuladd.f64(double %316, double -2.500000e-01, double %271)
  store double %317, double* %arrayidx1075, align 8, !tbaa !7
  %318 = tail call double @llvm.fmuladd.f64(double %p_u.sroa.15.1, double -4.000000e+00, double %p_um1.sroa.15.1)
  %319 = tail call double @llvm.fmuladd.f64(double %p_up1.sroa.14.1, double 6.000000e+00, double %318)
  %320 = tail call double @llvm.fmuladd.f64(double %p_up2.sroa.12.1, double -4.000000e+00, double %319)
  %321 = tail call double @llvm.fmuladd.f64(double %320, double -2.500000e-01, double %279)
  store double %321, double* %arrayidx1090, align 8, !tbaa !7
  %322 = tail call double @llvm.fmuladd.f64(double %p_u.sroa.28.1, double -4.000000e+00, double %p_um1.sroa.27.1)
  %323 = tail call double @llvm.fmuladd.f64(double %p_up1.sroa.26.1, double 6.000000e+00, double %322)
  %324 = tail call double @llvm.fmuladd.f64(double %p_up2.sroa.22.1, double -4.000000e+00, double %323)
  %325 = tail call double @llvm.fmuladd.f64(double %324, double -2.500000e-01, double %288)
  store double %325, double* %arrayidx1107, align 8, !tbaa !7
  %326 = tail call double @llvm.fmuladd.f64(double %p_u.sroa.41.1, double -4.000000e+00, double %p_um1.sroa.39.1)
  %327 = tail call double @llvm.fmuladd.f64(double %p_up1.sroa.38.1, double 6.000000e+00, double %326)
  %328 = tail call double @llvm.fmuladd.f64(double %p_up2.sroa.32.1, double -4.000000e+00, double %327)
  %329 = tail call double @llvm.fmuladd.f64(double %328, double -2.500000e-01, double %296)
  store double %329, double* %arrayidx1129, align 8, !tbaa !7
  %330 = tail call double @llvm.fmuladd.f64(double %p_u.sroa.54.1, double -4.000000e+00, double %p_um1.sroa.51.1)
  %331 = tail call double @llvm.fmuladd.f64(double %p_up1.sroa.50.1, double 6.000000e+00, double %330)
  %332 = tail call double @llvm.fmuladd.f64(double %p_up2.sroa.42.1, double -4.000000e+00, double %331)
  %333 = tail call double @llvm.fmuladd.f64(double %332, double -2.500000e-01, double %313)
  store double %333, double* %arrayidx1146, align 8, !tbaa !7
  %arrayidx1243 = getelementptr inbounds [163 x [163 x double]], [163 x [163 x double]]* %2, i64 %idxprom, i64 %idxprom985, i64 %idxprom9
  %334 = load double, double* %arrayidx1243, align 8, !tbaa !7
  %arrayidx1250 = getelementptr inbounds [163 x [163 x double]], [163 x [163 x double]]* %3, i64 %idxprom, i64 %idxprom985, i64 %idxprom9
  %335 = load double, double* %arrayidx1250, align 8, !tbaa !7
  %arrayidx1257 = getelementptr inbounds [163 x [163 x double]], [163 x [163 x double]]* %4, i64 %idxprom, i64 %idxprom985, i64 %idxprom9
  %336 = load double, double* %arrayidx1257, align 8, !tbaa !7
  %arrayidx1264 = getelementptr inbounds [163 x [163 x double]], [163 x [163 x double]]* %5, i64 %idxprom, i64 %idxprom985, i64 %idxprom9
  %337 = load double, double* %arrayidx1264, align 8, !tbaa !7
  %arrayidx1271 = getelementptr inbounds [163 x [163 x double]], [163 x [163 x double]]* %6, i64 %idxprom, i64 %idxprom985, i64 %idxprom9
  %338 = load double, double* %arrayidx1271, align 8, !tbaa !7
  %arrayidx1278 = getelementptr inbounds [163 x [163 x double]], [163 x [163 x double]]* %7, i64 %idxprom, i64 %idxprom985, i64 %idxprom9
  %339 = load double, double* %arrayidx1278, align 8, !tbaa !7
  %arrayidx1285 = getelementptr inbounds [163 x [163 x [5 x double]]], [163 x [163 x [5 x double]]]* %9, i64 %idxprom, i64 %idxprom1030, i64 %idxprom9, i64 0
  %340 = load double, double* %arrayidx1285, align 8, !tbaa !7
  %341 = tail call double @llvm.fmuladd.f64(double %p_up2.sroa.0.1, double -2.000000e+00, double %257)
  %add1289 = fadd double %p_up1.sroa.0.1, %341
  %342 = tail call double @llvm.fmuladd.f64(double %add1289, double 0x40D2FC3000000001, double %340)
  %sub1292 = fsub double %259, %p_up1.sroa.26.1
  %343 = tail call double @llvm.fmuladd.f64(double %sub1292, double -8.050000e+01, double %342)
  %arrayidx1300 = getelementptr inbounds [163 x [163 x [5 x double]]], [163 x [163 x [5 x double]]]* %9, i64 %idxprom, i64 %idxprom1030, i64 %idxprom9, i64 1
  %344 = load double, double* %arrayidx1300, align 8, !tbaa !7
  %345 = tail call double @llvm.fmuladd.f64(double %p_up2.sroa.12.1, double -2.000000e+00, double %258)
  %add1304 = fadd double %p_up1.sroa.14.1, %345
  %346 = tail call double @llvm.fmuladd.f64(double %add1304, double 0x40D2FC3000000001, double %344)
  %347 = tail call double @llvm.fmuladd.f64(double %262, double -2.000000e+00, double %334)
  %add1305 = fadd double %p_usp1.0.lcssa, %347
  %348 = tail call double @llvm.fmuladd.f64(double %add1305, double 0x40A4403333333334, double %346)
  %349 = fneg double %p_up1.sroa.14.1
  %neg1309 = fmul double %p_vsp1.0.lcssa, %349
  %350 = tail call double @llvm.fmuladd.f64(double %258, double %335, double %neg1309)
  %351 = tail call double @llvm.fmuladd.f64(double %350, double -8.050000e+01, double %348)
  %arrayidx1317 = getelementptr inbounds [163 x [163 x [5 x double]]], [163 x [163 x [5 x double]]]* %9, i64 %idxprom, i64 %idxprom1030, i64 %idxprom9, i64 2
  %352 = load double, double* %arrayidx1317, align 8, !tbaa !7
  %353 = tail call double @llvm.fmuladd.f64(double %p_up2.sroa.22.1, double -2.000000e+00, double %259)
  %add1321 = fadd double %p_up1.sroa.26.1, %353
  %354 = tail call double @llvm.fmuladd.f64(double %add1321, double 0x40D2FC3000000001, double %352)
  %355 = tail call double @llvm.fmuladd.f64(double %263, double -2.000000e+00, double %335)
  %add1322 = fadd double %p_vsp1.0.lcssa, %355
  %356 = tail call double @llvm.fmuladd.f64(double %add1322, double 0x40AB004444444445, double %354)
  %357 = fneg double %p_up1.sroa.26.1
  %neg1326 = fmul double %p_vsp1.0.lcssa, %357
  %358 = tail call double @llvm.fmuladd.f64(double %259, double %335, double %neg1326)
  %sub1328 = fsub double %261, %339
  %sub1330 = fsub double %sub1328, %p_up1.sroa.50.1
  %add1331 = fadd double %p_squarep1.0.lcssa, %sub1330
  %359 = tail call double @llvm.fmuladd.f64(double %add1331, double 4.000000e-01, double %358)
  %360 = tail call double @llvm.fmuladd.f64(double %359, double -8.050000e+01, double %356)
  %arrayidx1339 = getelementptr inbounds [163 x [163 x [5 x double]]], [163 x [163 x [5 x double]]]* %9, i64 %idxprom, i64 %idxprom1030, i64 %idxprom9, i64 3
  %361 = load double, double* %arrayidx1339, align 8, !tbaa !7
  %362 = tail call double @llvm.fmuladd.f64(double %p_up2.sroa.32.1, double -2.000000e+00, double %260)
  %add1343 = fadd double %p_up1.sroa.38.1, %362
  %363 = tail call double @llvm.fmuladd.f64(double %add1343, double 0x40D2FC3000000001, double %361)
  %364 = tail call double @llvm.fmuladd.f64(double %264, double -2.000000e+00, double %336)
  %add1344 = fadd double %p_wsp1.0.lcssa, %364
  %365 = tail call double @llvm.fmuladd.f64(double %add1344, double 0x40A4403333333334, double %363)
  %366 = fneg double %p_up1.sroa.38.1
  %neg1348 = fmul double %p_vsp1.0.lcssa, %366
  %367 = tail call double @llvm.fmuladd.f64(double %260, double %335, double %neg1348)
  %368 = tail call double @llvm.fmuladd.f64(double %367, double -8.050000e+01, double %365)
  %arrayidx1356 = getelementptr inbounds [163 x [163 x [5 x double]]], [163 x [163 x [5 x double]]]* %9, i64 %idxprom, i64 %idxprom1030, i64 %idxprom9, i64 4
  %369 = load double, double* %arrayidx1356, align 8, !tbaa !7
  %370 = tail call double @llvm.fmuladd.f64(double %p_up2.sroa.42.1, double -2.000000e+00, double %261)
  %add1360 = fadd double %p_up1.sroa.50.1, %370
  %371 = tail call double @llvm.fmuladd.f64(double %add1360, double 0x40D2FC3000000001, double %369)
  %372 = tail call double @llvm.fmuladd.f64(double %265, double -2.000000e+00, double %337)
  %add1361 = fadd double %p_qsp1.0.lcssa, %372
  %373 = tail call double @llvm.fmuladd.f64(double %add1361, double 0xC0A370D4FDF3B645, double %371)
  %374 = fmul double %263, -2.000000e+00
  %neg1364 = fmul double %263, %374
  %375 = tail call double @llvm.fmuladd.f64(double %335, double %335, double %neg1364)
  %376 = tail call double @llvm.fmuladd.f64(double %p_vsp1.0.lcssa, double %p_vsp1.0.lcssa, double %375)
  %377 = tail call double @llvm.fmuladd.f64(double %376, double 0x407B004444444445, double %373)
  %378 = fmul double %p_up2.sroa.42.1, -2.000000e+00
  %neg1369 = fmul double %378, %266
  %379 = tail call double @llvm.fmuladd.f64(double %261, double %338, double %neg1369)
  %380 = tail call double @llvm.fmuladd.f64(double %p_up1.sroa.50.1, double %p_rho_ip1.0.lcssa, double %379)
  %381 = tail call double @llvm.fmuladd.f64(double %380, double 0x40B3D884189374BC, double %377)
  %neg1373 = fmul double %339, -4.000000e-01
  %382 = tail call double @llvm.fmuladd.f64(double %261, double 1.400000e+00, double %neg1373)
  %383 = fneg double %.pre-phi2322
  %neg1379 = fmul double %p_vsp1.0.lcssa, %383
  %384 = tail call double @llvm.fmuladd.f64(double %382, double %335, double %neg1379)
  %385 = tail call double @llvm.fmuladd.f64(double %384, double -8.050000e+01, double %381)
  %386 = tail call double @llvm.fmuladd.f64(double %p_up1.sroa.0.1, double -4.000000e+00, double %p_u.sroa.0.1)
  %387 = tail call double @llvm.fmuladd.f64(double %p_up2.sroa.0.1, double 5.000000e+00, double %386)
  %388 = tail call double @llvm.fmuladd.f64(double %387, double -2.500000e-01, double %343)
  store double %388, double* %arrayidx1285, align 8, !tbaa !7
  %389 = tail call double @llvm.fmuladd.f64(double %p_up1.sroa.14.1, double -4.000000e+00, double %p_u.sroa.15.1)
  %390 = tail call double @llvm.fmuladd.f64(double %p_up2.sroa.12.1, double 5.000000e+00, double %389)
  %391 = tail call double @llvm.fmuladd.f64(double %390, double -2.500000e-01, double %351)
  store double %391, double* %arrayidx1300, align 8, !tbaa !7
  %392 = tail call double @llvm.fmuladd.f64(double %p_up1.sroa.26.1, double -4.000000e+00, double %p_u.sroa.28.1)
  %393 = tail call double @llvm.fmuladd.f64(double %p_up2.sroa.22.1, double 5.000000e+00, double %392)
  %394 = tail call double @llvm.fmuladd.f64(double %393, double -2.500000e-01, double %360)
  store double %394, double* %arrayidx1317, align 8, !tbaa !7
  %395 = tail call double @llvm.fmuladd.f64(double %p_up1.sroa.38.1, double -4.000000e+00, double %p_u.sroa.41.1)
  %396 = tail call double @llvm.fmuladd.f64(double %p_up2.sroa.32.1, double 5.000000e+00, double %395)
  %397 = tail call double @llvm.fmuladd.f64(double %396, double -2.500000e-01, double %368)
  store double %397, double* %arrayidx1339, align 8, !tbaa !7
  %398 = tail call double @llvm.fmuladd.f64(double %p_up1.sroa.50.1, double -4.000000e+00, double %p_u.sroa.54.1)
  %399 = tail call double @llvm.fmuladd.f64(double %p_up2.sroa.42.1, double 5.000000e+00, double %398)
  %400 = tail call double @llvm.fmuladd.f64(double %399, double -2.500000e-01, double %385)
  store double %400, double* %arrayidx1356, align 8, !tbaa !7
  br label %cleanup

cleanup:                                          ; preds = %for.end940, %entry
  ret void
}

; Function Attrs: convergent nofree norecurse nounwind uwtable
define dso_local spir_kernel void @compute_rhs5(double* nocapture readonly %g_u, double* nocapture readonly %g_us, double* nocapture readonly %g_vs, double* nocapture readonly %g_ws, double* nocapture readonly %g_qs, double* nocapture readonly %g_rho_i, double* nocapture readonly %g_square, double* nocapture %g_rhs, i32 %gp0, i32 %gp1, i32 %gp2) local_unnamed_addr #0 !kernel_arg_addr_space !15 !kernel_arg_access_qual !16 !kernel_arg_type !17 !kernel_arg_base_type !17 !kernel_arg_type_qual !18 {
entry:
  %call = tail call i64 @_Z13get_global_idj(i32 1) #6
  %0 = trunc i64 %call to i32
  %conv = add i32 %0, 1
  %call1 = tail call i64 @_Z13get_global_idj(i32 0) #6
  %1 = trunc i64 %call1 to i32
  %conv3 = add i32 %1, 1
  %sub = add nsw i32 %gp1, -2
  %cmp = icmp sgt i32 %conv, %sub
  %sub5 = add nsw i32 %gp0, -2
  %cmp6 = icmp sgt i32 %conv3, %sub5
  %or.cond = or i1 %cmp, %cmp6
  br i1 %or.cond, label %cleanup, label %if.end

if.end:                                           ; preds = %entry
  %2 = bitcast double* %g_us to [163 x [163 x double]]*
  %3 = bitcast double* %g_vs to [163 x [163 x double]]*
  %4 = bitcast double* %g_ws to [163 x [163 x double]]*
  %5 = bitcast double* %g_qs to [163 x [163 x double]]*
  %6 = bitcast double* %g_rho_i to [163 x [163 x double]]*
  %7 = bitcast double* %g_square to [163 x [163 x double]]*
  %8 = bitcast double* %g_u to [163 x [163 x [5 x double]]]*
  %idxprom = sext i32 %conv to i64
  %idxprom9 = sext i32 %conv3 to i64
  %arrayidx11 = getelementptr inbounds [163 x [163 x [5 x double]]], [163 x [163 x [5 x double]]]* %8, i64 0, i64 %idxprom, i64 %idxprom9, i64 0
  %9 = load double, double* %arrayidx11, align 8, !tbaa !7
  %arrayidx18 = getelementptr inbounds [163 x [163 x [5 x double]]], [163 x [163 x [5 x double]]]* %8, i64 0, i64 %idxprom, i64 %idxprom9, i64 1
  %10 = load double, double* %arrayidx18, align 8, !tbaa !7
  %arrayidx25 = getelementptr inbounds [163 x [163 x [5 x double]]], [163 x [163 x [5 x double]]]* %8, i64 0, i64 %idxprom, i64 %idxprom9, i64 2
  %11 = load double, double* %arrayidx25, align 8, !tbaa !7
  %arrayidx32 = getelementptr inbounds [163 x [163 x [5 x double]]], [163 x [163 x [5 x double]]]* %8, i64 0, i64 %idxprom, i64 %idxprom9, i64 3
  %12 = load double, double* %arrayidx32, align 8, !tbaa !7
  %arrayidx39 = getelementptr inbounds [163 x [163 x [5 x double]]], [163 x [163 x [5 x double]]]* %8, i64 0, i64 %idxprom, i64 %idxprom9, i64 4
  %13 = load double, double* %arrayidx39, align 8, !tbaa !7
  %arrayidx41 = getelementptr inbounds double, double* %g_u, i64 132845
  %14 = bitcast double* %arrayidx41 to [163 x [163 x [5 x double]]]*
  %arrayidx46 = getelementptr inbounds [163 x [163 x [5 x double]]], [163 x [163 x [5 x double]]]* %14, i64 0, i64 %idxprom, i64 %idxprom9, i64 0
  %15 = load double, double* %arrayidx46, align 8, !tbaa !7
  %arrayidx53 = getelementptr inbounds [163 x [163 x [5 x double]]], [163 x [163 x [5 x double]]]* %14, i64 0, i64 %idxprom, i64 %idxprom9, i64 1
  %16 = load double, double* %arrayidx53, align 8, !tbaa !7
  %arrayidx60 = getelementptr inbounds [163 x [163 x [5 x double]]], [163 x [163 x [5 x double]]]* %14, i64 0, i64 %idxprom, i64 %idxprom9, i64 2
  %17 = load double, double* %arrayidx60, align 8, !tbaa !7
  %arrayidx67 = getelementptr inbounds [163 x [163 x [5 x double]]], [163 x [163 x [5 x double]]]* %14, i64 0, i64 %idxprom, i64 %idxprom9, i64 3
  %18 = load double, double* %arrayidx67, align 8, !tbaa !7
  %arrayidx74 = getelementptr inbounds [163 x [163 x [5 x double]]], [163 x [163 x [5 x double]]]* %14, i64 0, i64 %idxprom, i64 %idxprom9, i64 4
  %19 = load double, double* %arrayidx74, align 8, !tbaa !7
  %arrayidx76 = getelementptr inbounds double, double* %g_u, i64 265690
  %20 = bitcast double* %arrayidx76 to [163 x [163 x [5 x double]]]*
  %arrayidx81 = getelementptr inbounds [163 x [163 x [5 x double]]], [163 x [163 x [5 x double]]]* %20, i64 0, i64 %idxprom, i64 %idxprom9, i64 0
  %21 = load double, double* %arrayidx81, align 8, !tbaa !7
  %arrayidx88 = getelementptr inbounds [163 x [163 x [5 x double]]], [163 x [163 x [5 x double]]]* %20, i64 0, i64 %idxprom, i64 %idxprom9, i64 1
  %22 = load double, double* %arrayidx88, align 8, !tbaa !7
  %arrayidx95 = getelementptr inbounds [163 x [163 x [5 x double]]], [163 x [163 x [5 x double]]]* %20, i64 0, i64 %idxprom, i64 %idxprom9, i64 2
  %23 = load double, double* %arrayidx95, align 8, !tbaa !7
  %arrayidx102 = getelementptr inbounds [163 x [163 x [5 x double]]], [163 x [163 x [5 x double]]]* %20, i64 0, i64 %idxprom, i64 %idxprom9, i64 3
  %24 = load double, double* %arrayidx102, align 8, !tbaa !7
  %arrayidx109 = getelementptr inbounds [163 x [163 x [5 x double]]], [163 x [163 x [5 x double]]]* %20, i64 0, i64 %idxprom, i64 %idxprom9, i64 4
  %25 = load double, double* %arrayidx109, align 8, !tbaa !7
  %arrayidx115 = getelementptr inbounds [163 x [163 x double]], [163 x [163 x double]]* %2, i64 0, i64 %idxprom, i64 %idxprom9
  %26 = load double, double* %arrayidx115, align 8, !tbaa !7
  %arrayidx116 = getelementptr inbounds double, double* %g_us, i64 26569
  %27 = bitcast double* %arrayidx116 to [163 x [163 x double]]*
  %arrayidx120 = getelementptr inbounds [163 x [163 x double]], [163 x [163 x double]]* %27, i64 0, i64 %idxprom, i64 %idxprom9
  %28 = load double, double* %arrayidx120, align 8, !tbaa !7
  %arrayidx125 = getelementptr inbounds [163 x [163 x double]], [163 x [163 x double]]* %3, i64 0, i64 %idxprom, i64 %idxprom9
  %29 = load double, double* %arrayidx125, align 8, !tbaa !7
  %arrayidx126 = getelementptr inbounds double, double* %g_vs, i64 26569
  %30 = bitcast double* %arrayidx126 to [163 x [163 x double]]*
  %arrayidx130 = getelementptr inbounds [163 x [163 x double]], [163 x [163 x double]]* %30, i64 0, i64 %idxprom, i64 %idxprom9
  %31 = load double, double* %arrayidx130, align 8, !tbaa !7
  %arrayidx135 = getelementptr inbounds [163 x [163 x double]], [163 x [163 x double]]* %4, i64 0, i64 %idxprom, i64 %idxprom9
  %32 = load double, double* %arrayidx135, align 8, !tbaa !7
  %arrayidx136 = getelementptr inbounds double, double* %g_ws, i64 26569
  %33 = bitcast double* %arrayidx136 to [163 x [163 x double]]*
  %arrayidx140 = getelementptr inbounds [163 x [163 x double]], [163 x [163 x double]]* %33, i64 0, i64 %idxprom, i64 %idxprom9
  %34 = load double, double* %arrayidx140, align 8, !tbaa !7
  %arrayidx145 = getelementptr inbounds [163 x [163 x double]], [163 x [163 x double]]* %5, i64 0, i64 %idxprom, i64 %idxprom9
  %35 = load double, double* %arrayidx145, align 8, !tbaa !7
  %arrayidx146 = getelementptr inbounds double, double* %g_qs, i64 26569
  %36 = bitcast double* %arrayidx146 to [163 x [163 x double]]*
  %arrayidx150 = getelementptr inbounds [163 x [163 x double]], [163 x [163 x double]]* %36, i64 0, i64 %idxprom, i64 %idxprom9
  %37 = load double, double* %arrayidx150, align 8, !tbaa !7
  %arrayidx155 = getelementptr inbounds [163 x [163 x double]], [163 x [163 x double]]* %6, i64 0, i64 %idxprom, i64 %idxprom9
  %38 = load double, double* %arrayidx155, align 8, !tbaa !7
  %arrayidx156 = getelementptr inbounds double, double* %g_rho_i, i64 26569
  %39 = bitcast double* %arrayidx156 to [163 x [163 x double]]*
  %arrayidx160 = getelementptr inbounds [163 x [163 x double]], [163 x [163 x double]]* %39, i64 0, i64 %idxprom, i64 %idxprom9
  %40 = load double, double* %arrayidx160, align 8, !tbaa !7
  %arrayidx165 = getelementptr inbounds [163 x [163 x double]], [163 x [163 x double]]* %7, i64 0, i64 %idxprom, i64 %idxprom9
  %41 = load double, double* %arrayidx165, align 8, !tbaa !7
  %arrayidx166 = getelementptr inbounds double, double* %g_square, i64 26569
  %42 = bitcast double* %arrayidx166 to [163 x [163 x double]]*
  %arrayidx170 = getelementptr inbounds [163 x [163 x double]], [163 x [163 x double]]* %42, i64 0, i64 %idxprom, i64 %idxprom9
  %43 = load double, double* %arrayidx170, align 8, !tbaa !7
  %arrayidx213 = getelementptr inbounds double, double* %g_u, i64 398535
  %44 = bitcast double* %arrayidx213 to [163 x [163 x [5 x double]]]*
  %arrayidx218 = getelementptr inbounds [163 x [163 x [5 x double]]], [163 x [163 x [5 x double]]]* %44, i64 0, i64 %idxprom, i64 %idxprom9, i64 0
  %45 = load double, double* %arrayidx218, align 8, !tbaa !7
  %arrayidx227 = getelementptr inbounds [163 x [163 x [5 x double]]], [163 x [163 x [5 x double]]]* %44, i64 0, i64 %idxprom, i64 %idxprom9, i64 1
  %46 = load double, double* %arrayidx227, align 8, !tbaa !7
  %arrayidx236 = getelementptr inbounds [163 x [163 x [5 x double]]], [163 x [163 x [5 x double]]]* %44, i64 0, i64 %idxprom, i64 %idxprom9, i64 2
  %47 = load double, double* %arrayidx236, align 8, !tbaa !7
  %arrayidx245 = getelementptr inbounds [163 x [163 x [5 x double]]], [163 x [163 x [5 x double]]]* %44, i64 0, i64 %idxprom, i64 %idxprom9, i64 3
  %48 = load double, double* %arrayidx245, align 8, !tbaa !7
  %arrayidx254 = getelementptr inbounds [163 x [163 x [5 x double]]], [163 x [163 x [5 x double]]]* %44, i64 0, i64 %idxprom, i64 %idxprom9, i64 4
  %49 = load double, double* %arrayidx254, align 8, !tbaa !7
  %arrayidx258 = getelementptr inbounds double, double* %g_us, i64 53138
  %50 = bitcast double* %arrayidx258 to [163 x [163 x double]]*
  %arrayidx262 = getelementptr inbounds [163 x [163 x double]], [163 x [163 x double]]* %50, i64 0, i64 %idxprom, i64 %idxprom9
  %51 = load double, double* %arrayidx262, align 8, !tbaa !7
  %arrayidx265 = getelementptr inbounds double, double* %g_vs, i64 53138
  %52 = bitcast double* %arrayidx265 to [163 x [163 x double]]*
  %arrayidx269 = getelementptr inbounds [163 x [163 x double]], [163 x [163 x double]]* %52, i64 0, i64 %idxprom, i64 %idxprom9
  %53 = load double, double* %arrayidx269, align 8, !tbaa !7
  %arrayidx272 = getelementptr inbounds double, double* %g_ws, i64 53138
  %54 = bitcast double* %arrayidx272 to [163 x [163 x double]]*
  %arrayidx276 = getelementptr inbounds [163 x [163 x double]], [163 x [163 x double]]* %54, i64 0, i64 %idxprom, i64 %idxprom9
  %55 = load double, double* %arrayidx276, align 8, !tbaa !7
  %arrayidx279 = getelementptr inbounds double, double* %g_qs, i64 53138
  %56 = bitcast double* %arrayidx279 to [163 x [163 x double]]*
  %arrayidx283 = getelementptr inbounds [163 x [163 x double]], [163 x [163 x double]]* %56, i64 0, i64 %idxprom, i64 %idxprom9
  %57 = load double, double* %arrayidx283, align 8, !tbaa !7
  %arrayidx286 = getelementptr inbounds double, double* %g_rho_i, i64 53138
  %58 = bitcast double* %arrayidx286 to [163 x [163 x double]]*
  %arrayidx290 = getelementptr inbounds [163 x [163 x double]], [163 x [163 x double]]* %58, i64 0, i64 %idxprom, i64 %idxprom9
  %59 = load double, double* %arrayidx290, align 8, !tbaa !7
  %arrayidx293 = getelementptr inbounds double, double* %g_square, i64 53138
  %60 = bitcast double* %arrayidx293 to [163 x [163 x double]]*
  %arrayidx297 = getelementptr inbounds [163 x [163 x double]], [163 x [163 x double]]* %60, i64 0, i64 %idxprom, i64 %idxprom9
  %61 = load double, double* %arrayidx297, align 8, !tbaa !7
  %arrayidx299 = getelementptr inbounds double, double* %g_rhs, i64 132845
  %62 = bitcast double* %arrayidx299 to [163 x [163 x [5 x double]]]*
  %arrayidx304 = getelementptr inbounds [163 x [163 x [5 x double]]], [163 x [163 x [5 x double]]]* %62, i64 0, i64 %idxprom, i64 %idxprom9, i64 0
  %63 = load double, double* %arrayidx304, align 8, !tbaa !7
  %64 = tail call double @llvm.fmuladd.f64(double %15, double -2.000000e+00, double %21)
  %add308 = fadd double %9, %64
  %65 = tail call double @llvm.fmuladd.f64(double %add308, double 0x40D9504000000001, double %63)
  %sub311 = fsub double %24, %12
  %66 = tail call double @llvm.fmuladd.f64(double %sub311, double -8.050000e+01, double %65)
  %arrayidx319 = getelementptr inbounds [163 x [163 x [5 x double]]], [163 x [163 x [5 x double]]]* %62, i64 0, i64 %idxprom, i64 %idxprom9, i64 1
  %67 = load double, double* %arrayidx319, align 8, !tbaa !7
  %68 = tail call double @llvm.fmuladd.f64(double %16, double -2.000000e+00, double %22)
  %add323 = fadd double %10, %68
  %69 = tail call double @llvm.fmuladd.f64(double %add323, double 0x40D9504000000001, double %67)
  %70 = tail call double @llvm.fmuladd.f64(double %28, double -2.000000e+00, double %51)
  %add324 = fadd double %26, %70
  %71 = tail call double @llvm.fmuladd.f64(double %add324, double 0x40A4403333333334, double %69)
  %72 = fneg double %10
  %neg = fmul double %32, %72
  %73 = tail call double @llvm.fmuladd.f64(double %22, double %55, double %neg)
  %74 = tail call double @llvm.fmuladd.f64(double %73, double -8.050000e+01, double %71)
  %arrayidx335 = getelementptr inbounds [163 x [163 x [5 x double]]], [163 x [163 x [5 x double]]]* %62, i64 0, i64 %idxprom, i64 %idxprom9, i64 2
  %75 = load double, double* %arrayidx335, align 8, !tbaa !7
  %76 = tail call double @llvm.fmuladd.f64(double %17, double -2.000000e+00, double %23)
  %add339 = fadd double %11, %76
  %77 = tail call double @llvm.fmuladd.f64(double %add339, double 0x40D9504000000001, double %75)
  %78 = tail call double @llvm.fmuladd.f64(double %31, double -2.000000e+00, double %53)
  %add340 = fadd double %29, %78
  %79 = tail call double @llvm.fmuladd.f64(double %add340, double 0x40A4403333333334, double %77)
  %80 = fneg double %11
  %neg344 = fmul double %32, %80
  %81 = tail call double @llvm.fmuladd.f64(double %23, double %55, double %neg344)
  %82 = tail call double @llvm.fmuladd.f64(double %81, double -8.050000e+01, double %79)
  %arrayidx352 = getelementptr inbounds [163 x [163 x [5 x double]]], [163 x [163 x [5 x double]]]* %62, i64 0, i64 %idxprom, i64 %idxprom9, i64 3
  %83 = load double, double* %arrayidx352, align 8, !tbaa !7
  %84 = tail call double @llvm.fmuladd.f64(double %18, double -2.000000e+00, double %24)
  %add356 = fadd double %12, %84
  %85 = tail call double @llvm.fmuladd.f64(double %add356, double 0x40D9504000000001, double %83)
  %86 = tail call double @llvm.fmuladd.f64(double %34, double -2.000000e+00, double %55)
  %add357 = fadd double %32, %86
  %87 = tail call double @llvm.fmuladd.f64(double %add357, double 0x40AB004444444445, double %85)
  %88 = fneg double %12
  %neg361 = fmul double %32, %88
  %89 = tail call double @llvm.fmuladd.f64(double %24, double %55, double %neg361)
  %sub363 = fsub double %25, %61
  %sub365 = fsub double %sub363, %13
  %add366 = fadd double %41, %sub365
  %90 = tail call double @llvm.fmuladd.f64(double %add366, double 4.000000e-01, double %89)
  %91 = tail call double @llvm.fmuladd.f64(double %90, double -8.050000e+01, double %87)
  %arrayidx374 = getelementptr inbounds [163 x [163 x [5 x double]]], [163 x [163 x [5 x double]]]* %62, i64 0, i64 %idxprom, i64 %idxprom9, i64 4
  %92 = load double, double* %arrayidx374, align 8, !tbaa !7
  %93 = tail call double @llvm.fmuladd.f64(double %19, double -2.000000e+00, double %25)
  %add378 = fadd double %13, %93
  %94 = tail call double @llvm.fmuladd.f64(double %add378, double 0x40D9504000000001, double %92)
  %95 = tail call double @llvm.fmuladd.f64(double %37, double -2.000000e+00, double %57)
  %add379 = fadd double %35, %95
  %96 = tail call double @llvm.fmuladd.f64(double %add379, double 0xC0A370D4FDF3B645, double %94)
  %97 = fmul double %34, -2.000000e+00
  %neg382 = fmul double %34, %97
  %98 = tail call double @llvm.fmuladd.f64(double %55, double %55, double %neg382)
  %99 = tail call double @llvm.fmuladd.f64(double %32, double %32, double %98)
  %100 = tail call double @llvm.fmuladd.f64(double %99, double 0x407B004444444445, double %96)
  %101 = fmul double %19, -2.000000e+00
  %neg387 = fmul double %101, %40
  %102 = tail call double @llvm.fmuladd.f64(double %25, double %59, double %neg387)
  %103 = tail call double @llvm.fmuladd.f64(double %13, double %38, double %102)
  %104 = tail call double @llvm.fmuladd.f64(double %103, double 0x40B3D884189374BC, double %100)
  %neg391 = fmul double %61, -4.000000e-01
  %105 = tail call double @llvm.fmuladd.f64(double %25, double 1.400000e+00, double %neg391)
  %neg395 = fmul double %41, -4.000000e-01
  %106 = tail call double @llvm.fmuladd.f64(double %13, double 1.400000e+00, double %neg395)
  %107 = fneg double %106
  %neg397 = fmul double %32, %107
  %108 = tail call double @llvm.fmuladd.f64(double %105, double %55, double %neg397)
  %109 = tail call double @llvm.fmuladd.f64(double %108, double -8.050000e+01, double %104)
  %neg408 = fmul double %21, -4.000000e+00
  %110 = tail call double @llvm.fmuladd.f64(double %15, double 5.000000e+00, double %neg408)
  %add411 = fadd double %45, %110
  %111 = tail call double @llvm.fmuladd.f64(double %add411, double -2.500000e-01, double %66)
  store double %111, double* %arrayidx304, align 8, !tbaa !7
  %neg408.1 = fmul double %22, -4.000000e+00
  %112 = tail call double @llvm.fmuladd.f64(double %16, double 5.000000e+00, double %neg408.1)
  %add411.1 = fadd double %46, %112
  %113 = tail call double @llvm.fmuladd.f64(double %add411.1, double -2.500000e-01, double %74)
  store double %113, double* %arrayidx319, align 8, !tbaa !7
  %neg408.2 = fmul double %23, -4.000000e+00
  %114 = tail call double @llvm.fmuladd.f64(double %17, double 5.000000e+00, double %neg408.2)
  %add411.2 = fadd double %47, %114
  %115 = tail call double @llvm.fmuladd.f64(double %add411.2, double -2.500000e-01, double %82)
  store double %115, double* %arrayidx335, align 8, !tbaa !7
  %neg408.3 = fmul double %24, -4.000000e+00
  %116 = tail call double @llvm.fmuladd.f64(double %18, double 5.000000e+00, double %neg408.3)
  %add411.3 = fadd double %48, %116
  %117 = tail call double @llvm.fmuladd.f64(double %add411.3, double -2.500000e-01, double %91)
  store double %117, double* %arrayidx352, align 8, !tbaa !7
  %neg408.4 = fmul double %25, -4.000000e+00
  %118 = tail call double @llvm.fmuladd.f64(double %19, double 5.000000e+00, double %neg408.4)
  %add411.4 = fadd double %49, %118
  %119 = tail call double @llvm.fmuladd.f64(double %add411.4, double -2.500000e-01, double %109)
  store double %119, double* %arrayidx374, align 8, !tbaa !7
  %120 = bitcast double* %g_rhs to [163 x [163 x [5 x double]]]*
  %arrayidx462 = getelementptr inbounds double, double* %g_u, i64 531380
  %121 = bitcast double* %arrayidx462 to [163 x [163 x [5 x double]]]*
  %arrayidx467 = getelementptr inbounds [163 x [163 x [5 x double]]], [163 x [163 x [5 x double]]]* %121, i64 0, i64 %idxprom, i64 %idxprom9, i64 0
  %122 = load double, double* %arrayidx467, align 8, !tbaa !7
  %arrayidx476 = getelementptr inbounds [163 x [163 x [5 x double]]], [163 x [163 x [5 x double]]]* %121, i64 0, i64 %idxprom, i64 %idxprom9, i64 1
  %123 = load double, double* %arrayidx476, align 8, !tbaa !7
  %arrayidx485 = getelementptr inbounds [163 x [163 x [5 x double]]], [163 x [163 x [5 x double]]]* %121, i64 0, i64 %idxprom, i64 %idxprom9, i64 2
  %124 = load double, double* %arrayidx485, align 8, !tbaa !7
  %arrayidx494 = getelementptr inbounds [163 x [163 x [5 x double]]], [163 x [163 x [5 x double]]]* %121, i64 0, i64 %idxprom, i64 %idxprom9, i64 3
  %125 = load double, double* %arrayidx494, align 8, !tbaa !7
  %arrayidx503 = getelementptr inbounds [163 x [163 x [5 x double]]], [163 x [163 x [5 x double]]]* %121, i64 0, i64 %idxprom, i64 %idxprom9, i64 4
  %126 = load double, double* %arrayidx503, align 8, !tbaa !7
  %arrayidx507 = getelementptr inbounds double, double* %g_us, i64 79707
  %127 = bitcast double* %arrayidx507 to [163 x [163 x double]]*
  %arrayidx511 = getelementptr inbounds [163 x [163 x double]], [163 x [163 x double]]* %127, i64 0, i64 %idxprom, i64 %idxprom9
  %128 = load double, double* %arrayidx511, align 8, !tbaa !7
  %arrayidx514 = getelementptr inbounds double, double* %g_vs, i64 79707
  %129 = bitcast double* %arrayidx514 to [163 x [163 x double]]*
  %arrayidx518 = getelementptr inbounds [163 x [163 x double]], [163 x [163 x double]]* %129, i64 0, i64 %idxprom, i64 %idxprom9
  %130 = load double, double* %arrayidx518, align 8, !tbaa !7
  %arrayidx521 = getelementptr inbounds double, double* %g_ws, i64 79707
  %131 = bitcast double* %arrayidx521 to [163 x [163 x double]]*
  %arrayidx525 = getelementptr inbounds [163 x [163 x double]], [163 x [163 x double]]* %131, i64 0, i64 %idxprom, i64 %idxprom9
  %132 = load double, double* %arrayidx525, align 8, !tbaa !7
  %arrayidx528 = getelementptr inbounds double, double* %g_qs, i64 79707
  %133 = bitcast double* %arrayidx528 to [163 x [163 x double]]*
  %arrayidx532 = getelementptr inbounds [163 x [163 x double]], [163 x [163 x double]]* %133, i64 0, i64 %idxprom, i64 %idxprom9
  %134 = load double, double* %arrayidx532, align 8, !tbaa !7
  %arrayidx535 = getelementptr inbounds double, double* %g_rho_i, i64 79707
  %135 = bitcast double* %arrayidx535 to [163 x [163 x double]]*
  %arrayidx539 = getelementptr inbounds [163 x [163 x double]], [163 x [163 x double]]* %135, i64 0, i64 %idxprom, i64 %idxprom9
  %136 = load double, double* %arrayidx539, align 8, !tbaa !7
  %arrayidx542 = getelementptr inbounds double, double* %g_square, i64 79707
  %137 = bitcast double* %arrayidx542 to [163 x [163 x double]]*
  %arrayidx546 = getelementptr inbounds [163 x [163 x double]], [163 x [163 x double]]* %137, i64 0, i64 %idxprom, i64 %idxprom9
  %138 = load double, double* %arrayidx546, align 8, !tbaa !7
  %arrayidx548 = getelementptr inbounds double, double* %g_rhs, i64 265690
  %139 = bitcast double* %arrayidx548 to [163 x [163 x [5 x double]]]*
  %arrayidx553 = getelementptr inbounds [163 x [163 x [5 x double]]], [163 x [163 x [5 x double]]]* %139, i64 0, i64 %idxprom, i64 %idxprom9, i64 0
  %140 = load double, double* %arrayidx553, align 8, !tbaa !7
  %141 = tail call double @llvm.fmuladd.f64(double %21, double -2.000000e+00, double %45)
  %add557 = fadd double %15, %141
  %142 = tail call double @llvm.fmuladd.f64(double %add557, double 0x40D9504000000001, double %140)
  %sub560 = fsub double %48, %18
  %143 = tail call double @llvm.fmuladd.f64(double %sub560, double -8.050000e+01, double %142)
  %arrayidx568 = getelementptr inbounds [163 x [163 x [5 x double]]], [163 x [163 x [5 x double]]]* %139, i64 0, i64 %idxprom, i64 %idxprom9, i64 1
  %144 = load double, double* %arrayidx568, align 8, !tbaa !7
  %145 = tail call double @llvm.fmuladd.f64(double %22, double -2.000000e+00, double %46)
  %add572 = fadd double %16, %145
  %146 = tail call double @llvm.fmuladd.f64(double %add572, double 0x40D9504000000001, double %144)
  %147 = tail call double @llvm.fmuladd.f64(double %51, double -2.000000e+00, double %128)
  %add573 = fadd double %28, %147
  %148 = tail call double @llvm.fmuladd.f64(double %add573, double 0x40A4403333333334, double %146)
  %149 = fneg double %16
  %neg577 = fmul double %34, %149
  %150 = tail call double @llvm.fmuladd.f64(double %46, double %132, double %neg577)
  %151 = tail call double @llvm.fmuladd.f64(double %150, double -8.050000e+01, double %148)
  %arrayidx585 = getelementptr inbounds [163 x [163 x [5 x double]]], [163 x [163 x [5 x double]]]* %139, i64 0, i64 %idxprom, i64 %idxprom9, i64 2
  %152 = load double, double* %arrayidx585, align 8, !tbaa !7
  %153 = tail call double @llvm.fmuladd.f64(double %23, double -2.000000e+00, double %47)
  %add589 = fadd double %17, %153
  %154 = tail call double @llvm.fmuladd.f64(double %add589, double 0x40D9504000000001, double %152)
  %155 = tail call double @llvm.fmuladd.f64(double %53, double -2.000000e+00, double %130)
  %add590 = fadd double %31, %155
  %156 = tail call double @llvm.fmuladd.f64(double %add590, double 0x40A4403333333334, double %154)
  %157 = fneg double %17
  %neg594 = fmul double %34, %157
  %158 = tail call double @llvm.fmuladd.f64(double %47, double %132, double %neg594)
  %159 = tail call double @llvm.fmuladd.f64(double %158, double -8.050000e+01, double %156)
  %arrayidx602 = getelementptr inbounds [163 x [163 x [5 x double]]], [163 x [163 x [5 x double]]]* %139, i64 0, i64 %idxprom, i64 %idxprom9, i64 3
  %160 = load double, double* %arrayidx602, align 8, !tbaa !7
  %161 = tail call double @llvm.fmuladd.f64(double %24, double -2.000000e+00, double %48)
  %add606 = fadd double %18, %161
  %162 = tail call double @llvm.fmuladd.f64(double %add606, double 0x40D9504000000001, double %160)
  %163 = tail call double @llvm.fmuladd.f64(double %55, double -2.000000e+00, double %132)
  %add607 = fadd double %34, %163
  %164 = tail call double @llvm.fmuladd.f64(double %add607, double 0x40AB004444444445, double %162)
  %165 = fneg double %18
  %neg611 = fmul double %34, %165
  %166 = tail call double @llvm.fmuladd.f64(double %48, double %132, double %neg611)
  %sub613 = fsub double %49, %138
  %sub615 = fsub double %sub613, %19
  %add616 = fadd double %43, %sub615
  %167 = tail call double @llvm.fmuladd.f64(double %add616, double 4.000000e-01, double %166)
  %168 = tail call double @llvm.fmuladd.f64(double %167, double -8.050000e+01, double %164)
  %arrayidx624 = getelementptr inbounds [163 x [163 x [5 x double]]], [163 x [163 x [5 x double]]]* %139, i64 0, i64 %idxprom, i64 %idxprom9, i64 4
  %169 = load double, double* %arrayidx624, align 8, !tbaa !7
  %170 = tail call double @llvm.fmuladd.f64(double %25, double -2.000000e+00, double %49)
  %add628 = fadd double %19, %170
  %171 = tail call double @llvm.fmuladd.f64(double %add628, double 0x40D9504000000001, double %169)
  %172 = tail call double @llvm.fmuladd.f64(double %57, double -2.000000e+00, double %134)
  %add629 = fadd double %37, %172
  %173 = tail call double @llvm.fmuladd.f64(double %add629, double 0xC0A370D4FDF3B645, double %171)
  %174 = fmul double %55, -2.000000e+00
  %neg632 = fmul double %55, %174
  %175 = tail call double @llvm.fmuladd.f64(double %132, double %132, double %neg632)
  %176 = tail call double @llvm.fmuladd.f64(double %34, double %34, double %175)
  %177 = tail call double @llvm.fmuladd.f64(double %176, double 0x407B004444444445, double %173)
  %178 = fmul double %25, -2.000000e+00
  %neg637 = fmul double %178, %59
  %179 = tail call double @llvm.fmuladd.f64(double %49, double %136, double %neg637)
  %180 = tail call double @llvm.fmuladd.f64(double %19, double %40, double %179)
  %181 = tail call double @llvm.fmuladd.f64(double %180, double 0x40B3D884189374BC, double %177)
  %neg641 = fmul double %138, -4.000000e-01
  %182 = tail call double @llvm.fmuladd.f64(double %49, double 1.400000e+00, double %neg641)
  %neg645 = fmul double %43, -4.000000e-01
  %183 = tail call double @llvm.fmuladd.f64(double %19, double 1.400000e+00, double %neg645)
  %184 = fneg double %183
  %neg647 = fmul double %34, %184
  %185 = tail call double @llvm.fmuladd.f64(double %182, double %132, double %neg647)
  %186 = tail call double @llvm.fmuladd.f64(double %185, double -8.050000e+01, double %181)
  %mul659 = fmul double %21, 6.000000e+00
  %187 = tail call double @llvm.fmuladd.f64(double %15, double -4.000000e+00, double %mul659)
  %188 = tail call double @llvm.fmuladd.f64(double %45, double -4.000000e+00, double %187)
  %add664 = fadd double %122, %188
  %189 = tail call double @llvm.fmuladd.f64(double %add664, double -2.500000e-01, double %143)
  store double %189, double* %arrayidx553, align 8, !tbaa !7
  %mul659.1 = fmul double %22, 6.000000e+00
  %190 = tail call double @llvm.fmuladd.f64(double %16, double -4.000000e+00, double %mul659.1)
  %191 = tail call double @llvm.fmuladd.f64(double %46, double -4.000000e+00, double %190)
  %add664.1 = fadd double %123, %191
  %192 = tail call double @llvm.fmuladd.f64(double %add664.1, double -2.500000e-01, double %151)
  store double %192, double* %arrayidx568, align 8, !tbaa !7
  %mul659.2 = fmul double %23, 6.000000e+00
  %193 = tail call double @llvm.fmuladd.f64(double %17, double -4.000000e+00, double %mul659.2)
  %194 = tail call double @llvm.fmuladd.f64(double %47, double -4.000000e+00, double %193)
  %add664.2 = fadd double %124, %194
  %195 = tail call double @llvm.fmuladd.f64(double %add664.2, double -2.500000e-01, double %159)
  store double %195, double* %arrayidx585, align 8, !tbaa !7
  %mul659.3 = fmul double %24, 6.000000e+00
  %196 = tail call double @llvm.fmuladd.f64(double %18, double -4.000000e+00, double %mul659.3)
  %197 = tail call double @llvm.fmuladd.f64(double %48, double -4.000000e+00, double %196)
  %add664.3 = fadd double %125, %197
  %198 = tail call double @llvm.fmuladd.f64(double %add664.3, double -2.500000e-01, double %168)
  store double %198, double* %arrayidx602, align 8, !tbaa !7
  %mul659.4 = fmul double %25, 6.000000e+00
  %199 = tail call double @llvm.fmuladd.f64(double %19, double -4.000000e+00, double %mul659.4)
  %200 = tail call double @llvm.fmuladd.f64(double %49, double -4.000000e+00, double %199)
  %add664.4 = fadd double %126, %200
  %201 = tail call double @llvm.fmuladd.f64(double %add664.4, double -2.500000e-01, double %186)
  store double %201, double* %arrayidx624, align 8, !tbaa !7
  %cmp678.not2105 = icmp slt i32 %gp2, 7
  %.pre2323 = add nsw i32 %gp2, -3
  br i1 %cmp678.not2105, label %for.end940, label %for.body680.preheader

for.body680.preheader:                            ; preds = %if.end
  %wide.trip.count = zext i32 %.pre2323 to i64
  br label %for.body680

for.body680:                                      ; preds = %for.body680.preheader, %for.body680
  %p_u.sroa.54.0 = phi double [ %25, %for.body680.preheader ], [ %p_up1.sroa.50.0, %for.body680 ]
  %p_u.sroa.41.0 = phi double [ %24, %for.body680.preheader ], [ %p_up1.sroa.38.0, %for.body680 ]
  %p_u.sroa.28.0 = phi double [ %23, %for.body680.preheader ], [ %p_up1.sroa.26.0, %for.body680 ]
  %p_u.sroa.15.0 = phi double [ %22, %for.body680.preheader ], [ %p_up1.sroa.14.0, %for.body680 ]
  %p_u.sroa.0.0 = phi double [ %21, %for.body680.preheader ], [ %p_up1.sroa.0.0, %for.body680 ]
  %p_up1.sroa.50.0 = phi double [ %49, %for.body680.preheader ], [ %p_up2.sroa.42.0, %for.body680 ]
  %p_up1.sroa.38.0 = phi double [ %48, %for.body680.preheader ], [ %p_up2.sroa.32.0, %for.body680 ]
  %p_up1.sroa.26.0 = phi double [ %47, %for.body680.preheader ], [ %p_up2.sroa.22.0, %for.body680 ]
  %p_up1.sroa.14.0 = phi double [ %46, %for.body680.preheader ], [ %p_up2.sroa.12.0, %for.body680 ]
  %p_up1.sroa.0.0 = phi double [ %45, %for.body680.preheader ], [ %p_up2.sroa.0.0, %for.body680 ]
  %p_up2.sroa.42.0 = phi double [ %126, %for.body680.preheader ], [ %207, %for.body680 ]
  %p_up2.sroa.32.0 = phi double [ %125, %for.body680.preheader ], [ %206, %for.body680 ]
  %p_up2.sroa.22.0 = phi double [ %124, %for.body680.preheader ], [ %205, %for.body680 ]
  %p_up2.sroa.12.0 = phi double [ %123, %for.body680.preheader ], [ %204, %for.body680 ]
  %p_up2.sroa.0.0 = phi double [ %122, %for.body680.preheader ], [ %203, %for.body680 ]
  %p_um1.sroa.0.0 = phi double [ %15, %for.body680.preheader ], [ %p_u.sroa.0.0, %for.body680 ]
  %p_um1.sroa.15.0 = phi double [ %16, %for.body680.preheader ], [ %p_u.sroa.15.0, %for.body680 ]
  %p_um1.sroa.27.0 = phi double [ %17, %for.body680.preheader ], [ %p_u.sroa.28.0, %for.body680 ]
  %p_um1.sroa.39.0 = phi double [ %18, %for.body680.preheader ], [ %p_u.sroa.41.0, %for.body680 ]
  %p_um1.sroa.51.0 = phi double [ %19, %for.body680.preheader ], [ %p_u.sroa.54.0, %for.body680 ]
  %indvars.iv = phi i64 [ 3, %for.body680.preheader ], [ %indvars.iv.next, %for.body680 ]
  %p_us.02117 = phi double [ %51, %for.body680.preheader ], [ %p_usp1.02116, %for.body680 ]
  %p_usp1.02116 = phi double [ %128, %for.body680.preheader ], [ %208, %for.body680 ]
  %p_vs.02115 = phi double [ %53, %for.body680.preheader ], [ %p_vsp1.02114, %for.body680 ]
  %p_vsp1.02114 = phi double [ %130, %for.body680.preheader ], [ %209, %for.body680 ]
  %p_squarep1.02113 = phi double [ %138, %for.body680.preheader ], [ %213, %for.body680 ]
  %p_square.02112 = phi double [ %61, %for.body680.preheader ], [ %p_squarep1.02113, %for.body680 ]
  %p_rho_ip1.02111 = phi double [ %136, %for.body680.preheader ], [ %212, %for.body680 ]
  %p_rho_i.02110 = phi double [ %59, %for.body680.preheader ], [ %p_rho_ip1.02111, %for.body680 ]
  %p_qsp1.02109 = phi double [ %134, %for.body680.preheader ], [ %211, %for.body680 ]
  %p_qs.02108 = phi double [ %57, %for.body680.preheader ], [ %p_qsp1.02109, %for.body680 ]
  %p_wsp1.02107 = phi double [ %132, %for.body680.preheader ], [ %210, %for.body680 ]
  %p_ws.02106 = phi double [ %55, %for.body680.preheader ], [ %p_wsp1.02107, %for.body680 ]
  %202 = add nuw nsw i64 %indvars.iv, 2
  %arrayidx728 = getelementptr inbounds [163 x [163 x [5 x double]]], [163 x [163 x [5 x double]]]* %8, i64 %202, i64 %idxprom, i64 %idxprom9, i64 0
  %203 = load double, double* %arrayidx728, align 8, !tbaa !7
  %arrayidx737 = getelementptr inbounds [163 x [163 x [5 x double]]], [163 x [163 x [5 x double]]]* %8, i64 %202, i64 %idxprom, i64 %idxprom9, i64 1
  %204 = load double, double* %arrayidx737, align 8, !tbaa !7
  %arrayidx746 = getelementptr inbounds [163 x [163 x [5 x double]]], [163 x [163 x [5 x double]]]* %8, i64 %202, i64 %idxprom, i64 %idxprom9, i64 2
  %205 = load double, double* %arrayidx746, align 8, !tbaa !7
  %arrayidx755 = getelementptr inbounds [163 x [163 x [5 x double]]], [163 x [163 x [5 x double]]]* %8, i64 %202, i64 %idxprom, i64 %idxprom9, i64 3
  %206 = load double, double* %arrayidx755, align 8, !tbaa !7
  %arrayidx764 = getelementptr inbounds [163 x [163 x [5 x double]]], [163 x [163 x [5 x double]]]* %8, i64 %202, i64 %idxprom, i64 %idxprom9, i64 4
  %207 = load double, double* %arrayidx764, align 8, !tbaa !7
  %indvars.iv.next = add nuw nsw i64 %indvars.iv, 1
  %arrayidx772 = getelementptr inbounds [163 x [163 x double]], [163 x [163 x double]]* %2, i64 %indvars.iv.next, i64 %idxprom, i64 %idxprom9
  %208 = load double, double* %arrayidx772, align 8, !tbaa !7
  %arrayidx779 = getelementptr inbounds [163 x [163 x double]], [163 x [163 x double]]* %3, i64 %indvars.iv.next, i64 %idxprom, i64 %idxprom9
  %209 = load double, double* %arrayidx779, align 8, !tbaa !7
  %arrayidx786 = getelementptr inbounds [163 x [163 x double]], [163 x [163 x double]]* %4, i64 %indvars.iv.next, i64 %idxprom, i64 %idxprom9
  %210 = load double, double* %arrayidx786, align 8, !tbaa !7
  %arrayidx793 = getelementptr inbounds [163 x [163 x double]], [163 x [163 x double]]* %5, i64 %indvars.iv.next, i64 %idxprom, i64 %idxprom9
  %211 = load double, double* %arrayidx793, align 8, !tbaa !7
  %arrayidx800 = getelementptr inbounds [163 x [163 x double]], [163 x [163 x double]]* %6, i64 %indvars.iv.next, i64 %idxprom, i64 %idxprom9
  %212 = load double, double* %arrayidx800, align 8, !tbaa !7
  %arrayidx807 = getelementptr inbounds [163 x [163 x double]], [163 x [163 x double]]* %7, i64 %indvars.iv.next, i64 %idxprom, i64 %idxprom9
  %213 = load double, double* %arrayidx807, align 8, !tbaa !7
  %arrayidx814 = getelementptr inbounds [163 x [163 x [5 x double]]], [163 x [163 x [5 x double]]]* %120, i64 %indvars.iv, i64 %idxprom, i64 %idxprom9, i64 0
  %214 = load double, double* %arrayidx814, align 8, !tbaa !7
  %215 = tail call double @llvm.fmuladd.f64(double %p_up1.sroa.0.0, double -2.000000e+00, double %p_up2.sroa.0.0)
  %add818 = fadd double %p_u.sroa.0.0, %215
  %216 = tail call double @llvm.fmuladd.f64(double %add818, double 0x40D9504000000001, double %214)
  %sub821 = fsub double %p_up2.sroa.32.0, %p_u.sroa.41.0
  %217 = tail call double @llvm.fmuladd.f64(double %sub821, double -8.050000e+01, double %216)
  %arrayidx829 = getelementptr inbounds [163 x [163 x [5 x double]]], [163 x [163 x [5 x double]]]* %120, i64 %indvars.iv, i64 %idxprom, i64 %idxprom9, i64 1
  %218 = load double, double* %arrayidx829, align 8, !tbaa !7
  %219 = tail call double @llvm.fmuladd.f64(double %p_up1.sroa.14.0, double -2.000000e+00, double %p_up2.sroa.12.0)
  %add833 = fadd double %p_u.sroa.15.0, %219
  %220 = tail call double @llvm.fmuladd.f64(double %add833, double 0x40D9504000000001, double %218)
  %221 = tail call double @llvm.fmuladd.f64(double %p_usp1.02116, double -2.000000e+00, double %208)
  %add834 = fadd double %p_us.02117, %221
  %222 = tail call double @llvm.fmuladd.f64(double %add834, double 0x40A4403333333334, double %220)
  %223 = fneg double %p_u.sroa.15.0
  %neg838 = fmul double %p_ws.02106, %223
  %224 = tail call double @llvm.fmuladd.f64(double %p_up2.sroa.12.0, double %210, double %neg838)
  %225 = tail call double @llvm.fmuladd.f64(double %224, double -8.050000e+01, double %222)
  %arrayidx846 = getelementptr inbounds [163 x [163 x [5 x double]]], [163 x [163 x [5 x double]]]* %120, i64 %indvars.iv, i64 %idxprom, i64 %idxprom9, i64 2
  %226 = load double, double* %arrayidx846, align 8, !tbaa !7
  %227 = tail call double @llvm.fmuladd.f64(double %p_up1.sroa.26.0, double -2.000000e+00, double %p_up2.sroa.22.0)
  %add850 = fadd double %p_u.sroa.28.0, %227
  %228 = tail call double @llvm.fmuladd.f64(double %add850, double 0x40D9504000000001, double %226)
  %229 = tail call double @llvm.fmuladd.f64(double %p_vsp1.02114, double -2.000000e+00, double %209)
  %add851 = fadd double %p_vs.02115, %229
  %230 = tail call double @llvm.fmuladd.f64(double %add851, double 0x40A4403333333334, double %228)
  %231 = fneg double %p_u.sroa.28.0
  %neg855 = fmul double %p_ws.02106, %231
  %232 = tail call double @llvm.fmuladd.f64(double %p_up2.sroa.22.0, double %210, double %neg855)
  %233 = tail call double @llvm.fmuladd.f64(double %232, double -8.050000e+01, double %230)
  %arrayidx863 = getelementptr inbounds [163 x [163 x [5 x double]]], [163 x [163 x [5 x double]]]* %120, i64 %indvars.iv, i64 %idxprom, i64 %idxprom9, i64 3
  %234 = load double, double* %arrayidx863, align 8, !tbaa !7
  %235 = tail call double @llvm.fmuladd.f64(double %p_up1.sroa.38.0, double -2.000000e+00, double %p_up2.sroa.32.0)
  %add867 = fadd double %p_u.sroa.41.0, %235
  %236 = tail call double @llvm.fmuladd.f64(double %add867, double 0x40D9504000000001, double %234)
  %237 = tail call double @llvm.fmuladd.f64(double %p_wsp1.02107, double -2.000000e+00, double %210)
  %add868 = fadd double %p_ws.02106, %237
  %238 = tail call double @llvm.fmuladd.f64(double %add868, double 0x40AB004444444445, double %236)
  %239 = fneg double %p_u.sroa.41.0
  %neg872 = fmul double %p_ws.02106, %239
  %240 = tail call double @llvm.fmuladd.f64(double %p_up2.sroa.32.0, double %210, double %neg872)
  %sub874 = fsub double %p_up2.sroa.42.0, %213
  %sub876 = fsub double %sub874, %p_u.sroa.54.0
  %add877 = fadd double %p_square.02112, %sub876
  %241 = tail call double @llvm.fmuladd.f64(double %add877, double 4.000000e-01, double %240)
  %242 = tail call double @llvm.fmuladd.f64(double %241, double -8.050000e+01, double %238)
  %arrayidx885 = getelementptr inbounds [163 x [163 x [5 x double]]], [163 x [163 x [5 x double]]]* %120, i64 %indvars.iv, i64 %idxprom, i64 %idxprom9, i64 4
  %243 = load double, double* %arrayidx885, align 8, !tbaa !7
  %244 = tail call double @llvm.fmuladd.f64(double %p_up1.sroa.50.0, double -2.000000e+00, double %p_up2.sroa.42.0)
  %add889 = fadd double %p_u.sroa.54.0, %244
  %245 = tail call double @llvm.fmuladd.f64(double %add889, double 0x40D9504000000001, double %243)
  %246 = tail call double @llvm.fmuladd.f64(double %p_qsp1.02109, double -2.000000e+00, double %211)
  %add890 = fadd double %p_qs.02108, %246
  %247 = tail call double @llvm.fmuladd.f64(double %add890, double 0xC0A370D4FDF3B645, double %245)
  %248 = fmul double %p_wsp1.02107, -2.000000e+00
  %neg893 = fmul double %p_wsp1.02107, %248
  %249 = tail call double @llvm.fmuladd.f64(double %210, double %210, double %neg893)
  %250 = tail call double @llvm.fmuladd.f64(double %p_ws.02106, double %p_ws.02106, double %249)
  %251 = tail call double @llvm.fmuladd.f64(double %250, double 0x407B004444444445, double %247)
  %252 = fmul double %p_up1.sroa.50.0, -2.000000e+00
  %neg898 = fmul double %p_rho_ip1.02111, %252
  %253 = tail call double @llvm.fmuladd.f64(double %p_up2.sroa.42.0, double %212, double %neg898)
  %254 = tail call double @llvm.fmuladd.f64(double %p_u.sroa.54.0, double %p_rho_i.02110, double %253)
  %255 = tail call double @llvm.fmuladd.f64(double %254, double 0x40B3D884189374BC, double %251)
  %neg902 = fmul double %213, -4.000000e-01
  %256 = tail call double @llvm.fmuladd.f64(double %p_up2.sroa.42.0, double 1.400000e+00, double %neg902)
  %neg906 = fmul double %p_square.02112, -4.000000e-01
  %257 = tail call double @llvm.fmuladd.f64(double %p_u.sroa.54.0, double 1.400000e+00, double %neg906)
  %258 = fneg double %257
  %neg908 = fmul double %p_ws.02106, %258
  %259 = tail call double @llvm.fmuladd.f64(double %256, double %210, double %neg908)
  %260 = tail call double @llvm.fmuladd.f64(double %259, double -8.050000e+01, double %255)
  %261 = tail call double @llvm.fmuladd.f64(double %p_u.sroa.0.0, double -4.000000e+00, double %p_um1.sroa.0.0)
  %262 = tail call double @llvm.fmuladd.f64(double %p_up1.sroa.0.0, double 6.000000e+00, double %261)
  %263 = tail call double @llvm.fmuladd.f64(double %p_up2.sroa.0.0, double -4.000000e+00, double %262)
  %add926 = fadd double %263, %203
  %264 = tail call double @llvm.fmuladd.f64(double %add926, double -2.500000e-01, double %217)
  store double %264, double* %arrayidx814, align 8, !tbaa !7
  %265 = tail call double @llvm.fmuladd.f64(double %p_u.sroa.15.0, double -4.000000e+00, double %p_um1.sroa.15.0)
  %266 = tail call double @llvm.fmuladd.f64(double %p_up1.sroa.14.0, double 6.000000e+00, double %265)
  %267 = tail call double @llvm.fmuladd.f64(double %p_up2.sroa.12.0, double -4.000000e+00, double %266)
  %add926.1 = fadd double %267, %204
  %268 = tail call double @llvm.fmuladd.f64(double %add926.1, double -2.500000e-01, double %225)
  store double %268, double* %arrayidx829, align 8, !tbaa !7
  %269 = tail call double @llvm.fmuladd.f64(double %p_u.sroa.28.0, double -4.000000e+00, double %p_um1.sroa.27.0)
  %270 = tail call double @llvm.fmuladd.f64(double %p_up1.sroa.26.0, double 6.000000e+00, double %269)
  %271 = tail call double @llvm.fmuladd.f64(double %p_up2.sroa.22.0, double -4.000000e+00, double %270)
  %add926.2 = fadd double %271, %205
  %272 = tail call double @llvm.fmuladd.f64(double %add926.2, double -2.500000e-01, double %233)
  store double %272, double* %arrayidx846, align 8, !tbaa !7
  %273 = tail call double @llvm.fmuladd.f64(double %p_u.sroa.41.0, double -4.000000e+00, double %p_um1.sroa.39.0)
  %274 = tail call double @llvm.fmuladd.f64(double %p_up1.sroa.38.0, double 6.000000e+00, double %273)
  %275 = tail call double @llvm.fmuladd.f64(double %p_up2.sroa.32.0, double -4.000000e+00, double %274)
  %add926.3 = fadd double %275, %206
  %276 = tail call double @llvm.fmuladd.f64(double %add926.3, double -2.500000e-01, double %242)
  store double %276, double* %arrayidx863, align 8, !tbaa !7
  %277 = tail call double @llvm.fmuladd.f64(double %p_u.sroa.54.0, double -4.000000e+00, double %p_um1.sroa.51.0)
  %278 = tail call double @llvm.fmuladd.f64(double %p_up1.sroa.50.0, double 6.000000e+00, double %277)
  %279 = tail call double @llvm.fmuladd.f64(double %p_up2.sroa.42.0, double -4.000000e+00, double %278)
  %add926.4 = fadd double %279, %207
  %280 = tail call double @llvm.fmuladd.f64(double %add926.4, double -2.500000e-01, double %260)
  store double %280, double* %arrayidx885, align 8, !tbaa !7
  %exitcond.not = icmp eq i64 %indvars.iv.next, %wide.trip.count
  br i1 %exitcond.not, label %for.end940.loopexit, label %for.body680

for.end940.loopexit:                              ; preds = %for.body680
  %.pre = fmul double %p_squarep1.02113, -4.000000e-01
  %.pre2321 = tail call double @llvm.fmuladd.f64(double %p_up1.sroa.50.0, double 1.400000e+00, double %.pre)
  br label %for.end940

for.end940:                                       ; preds = %if.end, %for.end940.loopexit
  %.pre-phi2322 = phi double [ %256, %for.end940.loopexit ], [ %182, %if.end ]
  %.pre-phi = phi double [ %.pre2321, %for.end940.loopexit ], [ %105, %if.end ]
  %p_u.sroa.54.1 = phi double [ %p_up1.sroa.50.0, %for.end940.loopexit ], [ %25, %if.end ]
  %p_u.sroa.41.1 = phi double [ %p_up1.sroa.38.0, %for.end940.loopexit ], [ %24, %if.end ]
  %p_u.sroa.28.1 = phi double [ %p_up1.sroa.26.0, %for.end940.loopexit ], [ %23, %if.end ]
  %p_u.sroa.15.1 = phi double [ %p_up1.sroa.14.0, %for.end940.loopexit ], [ %22, %if.end ]
  %p_u.sroa.0.1 = phi double [ %p_up1.sroa.0.0, %for.end940.loopexit ], [ %21, %if.end ]
  %p_up1.sroa.50.1 = phi double [ %p_up2.sroa.42.0, %for.end940.loopexit ], [ %49, %if.end ]
  %p_up1.sroa.38.1 = phi double [ %p_up2.sroa.32.0, %for.end940.loopexit ], [ %48, %if.end ]
  %p_up1.sroa.26.1 = phi double [ %p_up2.sroa.22.0, %for.end940.loopexit ], [ %47, %if.end ]
  %p_up1.sroa.14.1 = phi double [ %p_up2.sroa.12.0, %for.end940.loopexit ], [ %46, %if.end ]
  %p_up1.sroa.0.1 = phi double [ %p_up2.sroa.0.0, %for.end940.loopexit ], [ %45, %if.end ]
  %p_up2.sroa.42.1 = phi double [ %207, %for.end940.loopexit ], [ %126, %if.end ]
  %p_up2.sroa.32.1 = phi double [ %206, %for.end940.loopexit ], [ %125, %if.end ]
  %p_up2.sroa.22.1 = phi double [ %205, %for.end940.loopexit ], [ %124, %if.end ]
  %p_up2.sroa.12.1 = phi double [ %204, %for.end940.loopexit ], [ %123, %if.end ]
  %p_up2.sroa.0.1 = phi double [ %203, %for.end940.loopexit ], [ %122, %if.end ]
  %p_um1.sroa.0.1 = phi double [ %p_u.sroa.0.0, %for.end940.loopexit ], [ %15, %if.end ]
  %p_um1.sroa.15.1 = phi double [ %p_u.sroa.15.0, %for.end940.loopexit ], [ %16, %if.end ]
  %p_um1.sroa.27.1 = phi double [ %p_u.sroa.28.0, %for.end940.loopexit ], [ %17, %if.end ]
  %p_um1.sroa.39.1 = phi double [ %p_u.sroa.41.0, %for.end940.loopexit ], [ %18, %if.end ]
  %p_um1.sroa.51.1 = phi double [ %p_u.sroa.54.0, %for.end940.loopexit ], [ %19, %if.end ]
  %p_ws.0.lcssa = phi double [ %p_wsp1.02107, %for.end940.loopexit ], [ %55, %if.end ]
  %p_wsp1.0.lcssa = phi double [ %210, %for.end940.loopexit ], [ %132, %if.end ]
  %p_qs.0.lcssa = phi double [ %p_qsp1.02109, %for.end940.loopexit ], [ %57, %if.end ]
  %p_qsp1.0.lcssa = phi double [ %211, %for.end940.loopexit ], [ %134, %if.end ]
  %p_rho_i.0.lcssa = phi double [ %p_rho_ip1.02111, %for.end940.loopexit ], [ %59, %if.end ]
  %p_rho_ip1.0.lcssa = phi double [ %212, %for.end940.loopexit ], [ %136, %if.end ]
  %p_square.0.lcssa = phi double [ %p_squarep1.02113, %for.end940.loopexit ], [ %61, %if.end ]
  %p_squarep1.0.lcssa = phi double [ %213, %for.end940.loopexit ], [ %138, %if.end ]
  %p_vsp1.0.lcssa = phi double [ %209, %for.end940.loopexit ], [ %130, %if.end ]
  %p_vs.0.lcssa = phi double [ %p_vsp1.02114, %for.end940.loopexit ], [ %53, %if.end ]
  %p_usp1.0.lcssa = phi double [ %208, %for.end940.loopexit ], [ %128, %if.end ]
  %p_us.0.lcssa = phi double [ %p_usp1.02116, %for.end940.loopexit ], [ %51, %if.end ]
  %add982 = add nsw i32 %gp2, -1
  %idxprom983 = sext i32 %add982 to i64
  %arrayidx989 = getelementptr inbounds [163 x [163 x [5 x double]]], [163 x [163 x [5 x double]]]* %8, i64 %idxprom983, i64 %idxprom, i64 %idxprom9, i64 0
  %281 = load double, double* %arrayidx989, align 8, !tbaa !7
  %arrayidx998 = getelementptr inbounds [163 x [163 x [5 x double]]], [163 x [163 x [5 x double]]]* %8, i64 %idxprom983, i64 %idxprom, i64 %idxprom9, i64 1
  %282 = load double, double* %arrayidx998, align 8, !tbaa !7
  %arrayidx1007 = getelementptr inbounds [163 x [163 x [5 x double]]], [163 x [163 x [5 x double]]]* %8, i64 %idxprom983, i64 %idxprom, i64 %idxprom9, i64 2
  %283 = load double, double* %arrayidx1007, align 8, !tbaa !7
  %arrayidx1016 = getelementptr inbounds [163 x [163 x [5 x double]]], [163 x [163 x [5 x double]]]* %8, i64 %idxprom983, i64 %idxprom, i64 %idxprom9, i64 3
  %284 = load double, double* %arrayidx1016, align 8, !tbaa !7
  %arrayidx1025 = getelementptr inbounds [163 x [163 x [5 x double]]], [163 x [163 x [5 x double]]]* %8, i64 %idxprom983, i64 %idxprom, i64 %idxprom9, i64 4
  %285 = load double, double* %arrayidx1025, align 8, !tbaa !7
  %add1027 = add nsw i32 %gp2, -2
  %idxprom1028 = sext i32 %add1027 to i64
  %arrayidx1033 = getelementptr inbounds [163 x [163 x double]], [163 x [163 x double]]* %2, i64 %idxprom1028, i64 %idxprom, i64 %idxprom9
  %286 = load double, double* %arrayidx1033, align 8, !tbaa !7
  %arrayidx1040 = getelementptr inbounds [163 x [163 x double]], [163 x [163 x double]]* %3, i64 %idxprom1028, i64 %idxprom, i64 %idxprom9
  %287 = load double, double* %arrayidx1040, align 8, !tbaa !7
  %arrayidx1047 = getelementptr inbounds [163 x [163 x double]], [163 x [163 x double]]* %4, i64 %idxprom1028, i64 %idxprom, i64 %idxprom9
  %288 = load double, double* %arrayidx1047, align 8, !tbaa !7
  %arrayidx1054 = getelementptr inbounds [163 x [163 x double]], [163 x [163 x double]]* %5, i64 %idxprom1028, i64 %idxprom, i64 %idxprom9
  %289 = load double, double* %arrayidx1054, align 8, !tbaa !7
  %arrayidx1061 = getelementptr inbounds [163 x [163 x double]], [163 x [163 x double]]* %6, i64 %idxprom1028, i64 %idxprom, i64 %idxprom9
  %290 = load double, double* %arrayidx1061, align 8, !tbaa !7
  %arrayidx1068 = getelementptr inbounds [163 x [163 x double]], [163 x [163 x double]]* %7, i64 %idxprom1028, i64 %idxprom, i64 %idxprom9
  %291 = load double, double* %arrayidx1068, align 8, !tbaa !7
  %idxprom1069 = sext i32 %.pre2323 to i64
  %arrayidx1075 = getelementptr inbounds [163 x [163 x [5 x double]]], [163 x [163 x [5 x double]]]* %120, i64 %idxprom1069, i64 %idxprom, i64 %idxprom9, i64 0
  %292 = load double, double* %arrayidx1075, align 8, !tbaa !7
  %293 = tail call double @llvm.fmuladd.f64(double %p_up1.sroa.0.1, double -2.000000e+00, double %p_up2.sroa.0.1)
  %add1079 = fadd double %p_u.sroa.0.1, %293
  %294 = tail call double @llvm.fmuladd.f64(double %add1079, double 0x40D9504000000001, double %292)
  %sub1082 = fsub double %p_up2.sroa.32.1, %p_u.sroa.41.1
  %295 = tail call double @llvm.fmuladd.f64(double %sub1082, double -8.050000e+01, double %294)
  %arrayidx1090 = getelementptr inbounds [163 x [163 x [5 x double]]], [163 x [163 x [5 x double]]]* %120, i64 %idxprom1069, i64 %idxprom, i64 %idxprom9, i64 1
  %296 = load double, double* %arrayidx1090, align 8, !tbaa !7
  %297 = tail call double @llvm.fmuladd.f64(double %p_up1.sroa.14.1, double -2.000000e+00, double %p_up2.sroa.12.1)
  %add1094 = fadd double %p_u.sroa.15.1, %297
  %298 = tail call double @llvm.fmuladd.f64(double %add1094, double 0x40D9504000000001, double %296)
  %299 = tail call double @llvm.fmuladd.f64(double %p_usp1.0.lcssa, double -2.000000e+00, double %286)
  %add1095 = fadd double %p_us.0.lcssa, %299
  %300 = tail call double @llvm.fmuladd.f64(double %add1095, double 0x40A4403333333334, double %298)
  %301 = fneg double %p_u.sroa.15.1
  %neg1099 = fmul double %p_ws.0.lcssa, %301
  %302 = tail call double @llvm.fmuladd.f64(double %p_up2.sroa.12.1, double %288, double %neg1099)
  %303 = tail call double @llvm.fmuladd.f64(double %302, double -8.050000e+01, double %300)
  %arrayidx1107 = getelementptr inbounds [163 x [163 x [5 x double]]], [163 x [163 x [5 x double]]]* %120, i64 %idxprom1069, i64 %idxprom, i64 %idxprom9, i64 2
  %304 = load double, double* %arrayidx1107, align 8, !tbaa !7
  %305 = tail call double @llvm.fmuladd.f64(double %p_up1.sroa.26.1, double -2.000000e+00, double %p_up2.sroa.22.1)
  %add1111 = fadd double %p_u.sroa.28.1, %305
  %306 = tail call double @llvm.fmuladd.f64(double %add1111, double 0x40D9504000000001, double %304)
  %307 = tail call double @llvm.fmuladd.f64(double %p_vsp1.0.lcssa, double -2.000000e+00, double %287)
  %add1112 = fadd double %p_vs.0.lcssa, %307
  %308 = tail call double @llvm.fmuladd.f64(double %add1112, double 0x40A4403333333334, double %306)
  %309 = fneg double %p_u.sroa.28.1
  %neg1116 = fmul double %p_ws.0.lcssa, %309
  %310 = tail call double @llvm.fmuladd.f64(double %p_up2.sroa.22.1, double %288, double %neg1116)
  %311 = tail call double @llvm.fmuladd.f64(double %310, double -8.050000e+01, double %308)
  %arrayidx1124 = getelementptr inbounds [163 x [163 x [5 x double]]], [163 x [163 x [5 x double]]]* %120, i64 %idxprom1069, i64 %idxprom, i64 %idxprom9, i64 3
  %312 = load double, double* %arrayidx1124, align 8, !tbaa !7
  %313 = tail call double @llvm.fmuladd.f64(double %p_up1.sroa.38.1, double -2.000000e+00, double %p_up2.sroa.32.1)
  %add1128 = fadd double %p_u.sroa.41.1, %313
  %314 = tail call double @llvm.fmuladd.f64(double %add1128, double 0x40D9504000000001, double %312)
  %315 = tail call double @llvm.fmuladd.f64(double %p_wsp1.0.lcssa, double -2.000000e+00, double %288)
  %add1129 = fadd double %p_ws.0.lcssa, %315
  %316 = tail call double @llvm.fmuladd.f64(double %add1129, double 0x40AB004444444445, double %314)
  %317 = fneg double %p_u.sroa.41.1
  %neg1133 = fmul double %p_ws.0.lcssa, %317
  %318 = tail call double @llvm.fmuladd.f64(double %p_up2.sroa.32.1, double %288, double %neg1133)
  %sub1135 = fsub double %p_up2.sroa.42.1, %291
  %sub1137 = fsub double %sub1135, %p_u.sroa.54.1
  %add1138 = fadd double %p_square.0.lcssa, %sub1137
  %319 = tail call double @llvm.fmuladd.f64(double %add1138, double 4.000000e-01, double %318)
  %320 = tail call double @llvm.fmuladd.f64(double %319, double -8.050000e+01, double %316)
  %arrayidx1146 = getelementptr inbounds [163 x [163 x [5 x double]]], [163 x [163 x [5 x double]]]* %120, i64 %idxprom1069, i64 %idxprom, i64 %idxprom9, i64 4
  %321 = load double, double* %arrayidx1146, align 8, !tbaa !7
  %322 = tail call double @llvm.fmuladd.f64(double %p_up1.sroa.50.1, double -2.000000e+00, double %p_up2.sroa.42.1)
  %add1150 = fadd double %p_u.sroa.54.1, %322
  %323 = tail call double @llvm.fmuladd.f64(double %add1150, double 0x40D9504000000001, double %321)
  %324 = tail call double @llvm.fmuladd.f64(double %p_qsp1.0.lcssa, double -2.000000e+00, double %289)
  %add1151 = fadd double %p_qs.0.lcssa, %324
  %325 = tail call double @llvm.fmuladd.f64(double %add1151, double 0xC0A370D4FDF3B645, double %323)
  %326 = fmul double %p_wsp1.0.lcssa, -2.000000e+00
  %neg1154 = fmul double %p_wsp1.0.lcssa, %326
  %327 = tail call double @llvm.fmuladd.f64(double %288, double %288, double %neg1154)
  %328 = tail call double @llvm.fmuladd.f64(double %p_ws.0.lcssa, double %p_ws.0.lcssa, double %327)
  %329 = tail call double @llvm.fmuladd.f64(double %328, double 0x407B004444444445, double %325)
  %330 = fmul double %p_up1.sroa.50.1, -2.000000e+00
  %neg1159 = fmul double %p_rho_ip1.0.lcssa, %330
  %331 = tail call double @llvm.fmuladd.f64(double %p_up2.sroa.42.1, double %290, double %neg1159)
  %332 = tail call double @llvm.fmuladd.f64(double %p_u.sroa.54.1, double %p_rho_i.0.lcssa, double %331)
  %333 = tail call double @llvm.fmuladd.f64(double %332, double 0x40B3D884189374BC, double %329)
  %neg1163 = fmul double %291, -4.000000e-01
  %334 = tail call double @llvm.fmuladd.f64(double %p_up2.sroa.42.1, double 1.400000e+00, double %neg1163)
  %335 = fneg double %.pre-phi
  %neg1169 = fmul double %p_ws.0.lcssa, %335
  %336 = tail call double @llvm.fmuladd.f64(double %334, double %288, double %neg1169)
  %337 = tail call double @llvm.fmuladd.f64(double %336, double -8.050000e+01, double %333)
  %338 = tail call double @llvm.fmuladd.f64(double %p_u.sroa.0.1, double -4.000000e+00, double %p_um1.sroa.0.1)
  %339 = tail call double @llvm.fmuladd.f64(double %p_up1.sroa.0.1, double 6.000000e+00, double %338)
  %340 = tail call double @llvm.fmuladd.f64(double %p_up2.sroa.0.1, double -4.000000e+00, double %339)
  %341 = tail call double @llvm.fmuladd.f64(double %340, double -2.500000e-01, double %295)
  store double %341, double* %arrayidx1075, align 8, !tbaa !7
  %342 = tail call double @llvm.fmuladd.f64(double %p_u.sroa.15.1, double -4.000000e+00, double %p_um1.sroa.15.1)
  %343 = tail call double @llvm.fmuladd.f64(double %p_up1.sroa.14.1, double 6.000000e+00, double %342)
  %344 = tail call double @llvm.fmuladd.f64(double %p_up2.sroa.12.1, double -4.000000e+00, double %343)
  %345 = tail call double @llvm.fmuladd.f64(double %344, double -2.500000e-01, double %303)
  store double %345, double* %arrayidx1090, align 8, !tbaa !7
  %346 = tail call double @llvm.fmuladd.f64(double %p_u.sroa.28.1, double -4.000000e+00, double %p_um1.sroa.27.1)
  %347 = tail call double @llvm.fmuladd.f64(double %p_up1.sroa.26.1, double 6.000000e+00, double %346)
  %348 = tail call double @llvm.fmuladd.f64(double %p_up2.sroa.22.1, double -4.000000e+00, double %347)
  %349 = tail call double @llvm.fmuladd.f64(double %348, double -2.500000e-01, double %311)
  store double %349, double* %arrayidx1107, align 8, !tbaa !7
  %350 = tail call double @llvm.fmuladd.f64(double %p_u.sroa.41.1, double -4.000000e+00, double %p_um1.sroa.39.1)
  %351 = tail call double @llvm.fmuladd.f64(double %p_up1.sroa.38.1, double 6.000000e+00, double %350)
  %352 = tail call double @llvm.fmuladd.f64(double %p_up2.sroa.32.1, double -4.000000e+00, double %351)
  %353 = tail call double @llvm.fmuladd.f64(double %352, double -2.500000e-01, double %320)
  store double %353, double* %arrayidx1124, align 8, !tbaa !7
  %354 = tail call double @llvm.fmuladd.f64(double %p_u.sroa.54.1, double -4.000000e+00, double %p_um1.sroa.51.1)
  %355 = tail call double @llvm.fmuladd.f64(double %p_up1.sroa.50.1, double 6.000000e+00, double %354)
  %356 = tail call double @llvm.fmuladd.f64(double %p_up2.sroa.42.1, double -4.000000e+00, double %355)
  %357 = tail call double @llvm.fmuladd.f64(double %356, double -2.500000e-01, double %337)
  store double %357, double* %arrayidx1146, align 8, !tbaa !7
  %arrayidx1243 = getelementptr inbounds [163 x [163 x double]], [163 x [163 x double]]* %2, i64 %idxprom983, i64 %idxprom, i64 %idxprom9
  %358 = load double, double* %arrayidx1243, align 8, !tbaa !7
  %arrayidx1250 = getelementptr inbounds [163 x [163 x double]], [163 x [163 x double]]* %3, i64 %idxprom983, i64 %idxprom, i64 %idxprom9
  %359 = load double, double* %arrayidx1250, align 8, !tbaa !7
  %arrayidx1257 = getelementptr inbounds [163 x [163 x double]], [163 x [163 x double]]* %4, i64 %idxprom983, i64 %idxprom, i64 %idxprom9
  %360 = load double, double* %arrayidx1257, align 8, !tbaa !7
  %arrayidx1264 = getelementptr inbounds [163 x [163 x double]], [163 x [163 x double]]* %5, i64 %idxprom983, i64 %idxprom, i64 %idxprom9
  %361 = load double, double* %arrayidx1264, align 8, !tbaa !7
  %arrayidx1271 = getelementptr inbounds [163 x [163 x double]], [163 x [163 x double]]* %6, i64 %idxprom983, i64 %idxprom, i64 %idxprom9
  %362 = load double, double* %arrayidx1271, align 8, !tbaa !7
  %arrayidx1278 = getelementptr inbounds [163 x [163 x double]], [163 x [163 x double]]* %7, i64 %idxprom983, i64 %idxprom, i64 %idxprom9
  %363 = load double, double* %arrayidx1278, align 8, !tbaa !7
  %arrayidx1285 = getelementptr inbounds [163 x [163 x [5 x double]]], [163 x [163 x [5 x double]]]* %120, i64 %idxprom1028, i64 %idxprom, i64 %idxprom9, i64 0
  %364 = load double, double* %arrayidx1285, align 8, !tbaa !7
  %365 = tail call double @llvm.fmuladd.f64(double %p_up2.sroa.0.1, double -2.000000e+00, double %281)
  %add1289 = fadd double %p_up1.sroa.0.1, %365
  %366 = tail call double @llvm.fmuladd.f64(double %add1289, double 0x40D9504000000001, double %364)
  %sub1292 = fsub double %284, %p_up1.sroa.38.1
  %367 = tail call double @llvm.fmuladd.f64(double %sub1292, double -8.050000e+01, double %366)
  %arrayidx1300 = getelementptr inbounds [163 x [163 x [5 x double]]], [163 x [163 x [5 x double]]]* %120, i64 %idxprom1028, i64 %idxprom, i64 %idxprom9, i64 1
  %368 = load double, double* %arrayidx1300, align 8, !tbaa !7
  %369 = tail call double @llvm.fmuladd.f64(double %p_up2.sroa.12.1, double -2.000000e+00, double %282)
  %add1304 = fadd double %p_up1.sroa.14.1, %369
  %370 = tail call double @llvm.fmuladd.f64(double %add1304, double 0x40D9504000000001, double %368)
  %371 = tail call double @llvm.fmuladd.f64(double %286, double -2.000000e+00, double %358)
  %add1305 = fadd double %p_usp1.0.lcssa, %371
  %372 = tail call double @llvm.fmuladd.f64(double %add1305, double 0x40A4403333333334, double %370)
  %373 = fneg double %p_up1.sroa.14.1
  %neg1309 = fmul double %p_wsp1.0.lcssa, %373
  %374 = tail call double @llvm.fmuladd.f64(double %282, double %360, double %neg1309)
  %375 = tail call double @llvm.fmuladd.f64(double %374, double -8.050000e+01, double %372)
  %arrayidx1317 = getelementptr inbounds [163 x [163 x [5 x double]]], [163 x [163 x [5 x double]]]* %120, i64 %idxprom1028, i64 %idxprom, i64 %idxprom9, i64 2
  %376 = load double, double* %arrayidx1317, align 8, !tbaa !7
  %377 = tail call double @llvm.fmuladd.f64(double %p_up2.sroa.22.1, double -2.000000e+00, double %283)
  %add1321 = fadd double %p_up1.sroa.26.1, %377
  %378 = tail call double @llvm.fmuladd.f64(double %add1321, double 0x40D9504000000001, double %376)
  %379 = tail call double @llvm.fmuladd.f64(double %287, double -2.000000e+00, double %359)
  %add1322 = fadd double %p_vsp1.0.lcssa, %379
  %380 = tail call double @llvm.fmuladd.f64(double %add1322, double 0x40A4403333333334, double %378)
  %381 = fneg double %p_up1.sroa.26.1
  %neg1326 = fmul double %p_wsp1.0.lcssa, %381
  %382 = tail call double @llvm.fmuladd.f64(double %283, double %360, double %neg1326)
  %383 = tail call double @llvm.fmuladd.f64(double %382, double -8.050000e+01, double %380)
  %arrayidx1334 = getelementptr inbounds [163 x [163 x [5 x double]]], [163 x [163 x [5 x double]]]* %120, i64 %idxprom1028, i64 %idxprom, i64 %idxprom9, i64 3
  %384 = load double, double* %arrayidx1334, align 8, !tbaa !7
  %385 = tail call double @llvm.fmuladd.f64(double %p_up2.sroa.32.1, double -2.000000e+00, double %284)
  %add1338 = fadd double %p_up1.sroa.38.1, %385
  %386 = tail call double @llvm.fmuladd.f64(double %add1338, double 0x40D9504000000001, double %384)
  %387 = tail call double @llvm.fmuladd.f64(double %288, double -2.000000e+00, double %360)
  %add1339 = fadd double %p_wsp1.0.lcssa, %387
  %388 = tail call double @llvm.fmuladd.f64(double %add1339, double 0x40AB004444444445, double %386)
  %389 = fneg double %p_up1.sroa.38.1
  %neg1343 = fmul double %p_wsp1.0.lcssa, %389
  %390 = tail call double @llvm.fmuladd.f64(double %284, double %360, double %neg1343)
  %sub1345 = fsub double %285, %363
  %sub1347 = fsub double %sub1345, %p_up1.sroa.50.1
  %add1348 = fadd double %p_squarep1.0.lcssa, %sub1347
  %391 = tail call double @llvm.fmuladd.f64(double %add1348, double 4.000000e-01, double %390)
  %392 = tail call double @llvm.fmuladd.f64(double %391, double -8.050000e+01, double %388)
  %arrayidx1356 = getelementptr inbounds [163 x [163 x [5 x double]]], [163 x [163 x [5 x double]]]* %120, i64 %idxprom1028, i64 %idxprom, i64 %idxprom9, i64 4
  %393 = load double, double* %arrayidx1356, align 8, !tbaa !7
  %394 = tail call double @llvm.fmuladd.f64(double %p_up2.sroa.42.1, double -2.000000e+00, double %285)
  %add1360 = fadd double %p_up1.sroa.50.1, %394
  %395 = tail call double @llvm.fmuladd.f64(double %add1360, double 0x40D9504000000001, double %393)
  %396 = tail call double @llvm.fmuladd.f64(double %289, double -2.000000e+00, double %361)
  %add1361 = fadd double %p_qsp1.0.lcssa, %396
  %397 = tail call double @llvm.fmuladd.f64(double %add1361, double 0xC0A370D4FDF3B645, double %395)
  %398 = fmul double %288, -2.000000e+00
  %neg1364 = fmul double %288, %398
  %399 = tail call double @llvm.fmuladd.f64(double %360, double %360, double %neg1364)
  %400 = tail call double @llvm.fmuladd.f64(double %p_wsp1.0.lcssa, double %p_wsp1.0.lcssa, double %399)
  %401 = tail call double @llvm.fmuladd.f64(double %400, double 0x407B004444444445, double %397)
  %402 = fmul double %p_up2.sroa.42.1, -2.000000e+00
  %neg1369 = fmul double %402, %290
  %403 = tail call double @llvm.fmuladd.f64(double %285, double %362, double %neg1369)
  %404 = tail call double @llvm.fmuladd.f64(double %p_up1.sroa.50.1, double %p_rho_ip1.0.lcssa, double %403)
  %405 = tail call double @llvm.fmuladd.f64(double %404, double 0x40B3D884189374BC, double %401)
  %neg1373 = fmul double %363, -4.000000e-01
  %406 = tail call double @llvm.fmuladd.f64(double %285, double 1.400000e+00, double %neg1373)
  %407 = fneg double %.pre-phi2322
  %neg1379 = fmul double %p_wsp1.0.lcssa, %407
  %408 = tail call double @llvm.fmuladd.f64(double %406, double %360, double %neg1379)
  %409 = tail call double @llvm.fmuladd.f64(double %408, double -8.050000e+01, double %405)
  %410 = tail call double @llvm.fmuladd.f64(double %p_up1.sroa.0.1, double -4.000000e+00, double %p_u.sroa.0.1)
  %411 = tail call double @llvm.fmuladd.f64(double %p_up2.sroa.0.1, double 5.000000e+00, double %410)
  %412 = tail call double @llvm.fmuladd.f64(double %411, double -2.500000e-01, double %367)
  store double %412, double* %arrayidx1285, align 8, !tbaa !7
  %413 = tail call double @llvm.fmuladd.f64(double %p_up1.sroa.14.1, double -4.000000e+00, double %p_u.sroa.15.1)
  %414 = tail call double @llvm.fmuladd.f64(double %p_up2.sroa.12.1, double 5.000000e+00, double %413)
  %415 = tail call double @llvm.fmuladd.f64(double %414, double -2.500000e-01, double %375)
  store double %415, double* %arrayidx1300, align 8, !tbaa !7
  %416 = tail call double @llvm.fmuladd.f64(double %p_up1.sroa.26.1, double -4.000000e+00, double %p_u.sroa.28.1)
  %417 = tail call double @llvm.fmuladd.f64(double %p_up2.sroa.22.1, double 5.000000e+00, double %416)
  %418 = tail call double @llvm.fmuladd.f64(double %417, double -2.500000e-01, double %383)
  store double %418, double* %arrayidx1317, align 8, !tbaa !7
  %419 = tail call double @llvm.fmuladd.f64(double %p_up1.sroa.38.1, double -4.000000e+00, double %p_u.sroa.41.1)
  %420 = tail call double @llvm.fmuladd.f64(double %p_up2.sroa.32.1, double 5.000000e+00, double %419)
  %421 = tail call double @llvm.fmuladd.f64(double %420, double -2.500000e-01, double %392)
  store double %421, double* %arrayidx1334, align 8, !tbaa !7
  %422 = tail call double @llvm.fmuladd.f64(double %p_up1.sroa.50.1, double -4.000000e+00, double %p_u.sroa.54.1)
  %423 = tail call double @llvm.fmuladd.f64(double %p_up2.sroa.42.1, double 5.000000e+00, double %422)
  %424 = tail call double @llvm.fmuladd.f64(double %423, double -2.500000e-01, double %409)
  store double %424, double* %arrayidx1356, align 8, !tbaa !7
  br label %cleanup

cleanup:                                          ; preds = %for.end940, %entry
  ret void
}

; Function Attrs: convergent nofree norecurse nounwind uwtable
define dso_local spir_kernel void @compute_rhs6(double* nocapture %g_rhs, i32 %gp0, i32 %gp1, i32 %gp2) local_unnamed_addr #0 !kernel_arg_addr_space !19 !kernel_arg_access_qual !20 !kernel_arg_type !21 !kernel_arg_base_type !21 !kernel_arg_type_qual !22 {
entry:
  %call = tail call i64 @_Z13get_global_idj(i32 2) #6
  %0 = trunc i64 %call to i32
  %conv = add i32 %0, 1
  %call1 = tail call i64 @_Z13get_global_idj(i32 1) #6
  %1 = trunc i64 %call1 to i32
  %conv3 = add i32 %1, 1
  %call4 = tail call i64 @_Z13get_global_idj(i32 0) #6
  %2 = trunc i64 %call4 to i32
  %conv6 = add i32 %2, 1
  %sub = add nsw i32 %gp2, -2
  %cmp = icmp sgt i32 %conv, %sub
  %sub8 = add nsw i32 %gp1, -2
  %cmp9 = icmp sgt i32 %conv3, %sub8
  %or.cond = or i1 %cmp, %cmp9
  %sub12 = add nsw i32 %gp0, -2
  %cmp13 = icmp sgt i32 %conv6, %sub12
  %or.cond49 = or i1 %or.cond, %cmp13
  br i1 %or.cond49, label %cleanup, label %if.end

if.end:                                           ; preds = %entry
  %3 = bitcast double* %g_rhs to [163 x [163 x [5 x double]]]*
  %idxprom = sext i32 %conv to i64
  %idxprom17 = sext i32 %conv3 to i64
  %idxprom19 = sext i32 %conv6 to i64
  %arrayidx22 = getelementptr inbounds [163 x [163 x [5 x double]]], [163 x [163 x [5 x double]]]* %3, i64 %idxprom, i64 %idxprom17, i64 %idxprom19, i64 0
  %4 = load double, double* %arrayidx22, align 8, !tbaa !7
  %mul = fmul double %4, 1.000000e-04
  store double %mul, double* %arrayidx22, align 8, !tbaa !7
  %arrayidx22.1 = getelementptr inbounds [163 x [163 x [5 x double]]], [163 x [163 x [5 x double]]]* %3, i64 %idxprom, i64 %idxprom17, i64 %idxprom19, i64 1
  %5 = load double, double* %arrayidx22.1, align 8, !tbaa !7
  %mul.1 = fmul double %5, 1.000000e-04
  store double %mul.1, double* %arrayidx22.1, align 8, !tbaa !7
  %arrayidx22.2 = getelementptr inbounds [163 x [163 x [5 x double]]], [163 x [163 x [5 x double]]]* %3, i64 %idxprom, i64 %idxprom17, i64 %idxprom19, i64 2
  %6 = load double, double* %arrayidx22.2, align 8, !tbaa !7
  %mul.2 = fmul double %6, 1.000000e-04
  store double %mul.2, double* %arrayidx22.2, align 8, !tbaa !7
  %arrayidx22.3 = getelementptr inbounds [163 x [163 x [5 x double]]], [163 x [163 x [5 x double]]]* %3, i64 %idxprom, i64 %idxprom17, i64 %idxprom19, i64 3
  %7 = load double, double* %arrayidx22.3, align 8, !tbaa !7
  %mul.3 = fmul double %7, 1.000000e-04
  store double %mul.3, double* %arrayidx22.3, align 8, !tbaa !7
  %arrayidx22.4 = getelementptr inbounds [163 x [163 x [5 x double]]], [163 x [163 x [5 x double]]]* %3, i64 %idxprom, i64 %idxprom17, i64 %idxprom19, i64 4
  %8 = load double, double* %arrayidx22.4, align 8, !tbaa !7
  %mul.4 = fmul double %8, 1.000000e-04
  store double %mul.4, double* %arrayidx22.4, align 8, !tbaa !7
  br label %cleanup

cleanup:                                          ; preds = %if.end, %entry
  ret void
}

; Function Attrs: nofree norecurse nounwind uwtable
define dso_local void @p_matvec_sub([5 x double]* readonly %ablock, double* nocapture readonly %avec, double* nocapture %bvec) local_unnamed_addr #4 {
entry:
  %0 = load double, double* %bvec, align 8, !tbaa !7
  %arrayidx2 = getelementptr inbounds [5 x double], [5 x double]* %ablock, i64 0, i64 0
  %1 = load double, double* %arrayidx2, align 8, !tbaa !7
  %2 = load double, double* %avec, align 8, !tbaa !7
  %neg = fneg double %1
  %3 = tail call double @llvm.fmuladd.f64(double %neg, double %2, double %0)
  %arrayidx5 = getelementptr inbounds [5 x double], [5 x double]* %ablock, i64 1, i64 0
  %4 = load double, double* %arrayidx5, align 8, !tbaa !7
  %arrayidx6 = getelementptr inbounds double, double* %avec, i64 1
  %5 = load double, double* %arrayidx6, align 8, !tbaa !7
  %neg7 = fneg double %4
  %6 = tail call double @llvm.fmuladd.f64(double %neg7, double %5, double %3)
  %arrayidx9 = getelementptr inbounds [5 x double], [5 x double]* %ablock, i64 2, i64 0
  %7 = load double, double* %arrayidx9, align 8, !tbaa !7
  %arrayidx10 = getelementptr inbounds double, double* %avec, i64 2
  %8 = load double, double* %arrayidx10, align 8, !tbaa !7
  %neg11 = fneg double %7
  %9 = tail call double @llvm.fmuladd.f64(double %neg11, double %8, double %6)
  %arrayidx13 = getelementptr inbounds [5 x double], [5 x double]* %ablock, i64 3, i64 0
  %10 = load double, double* %arrayidx13, align 8, !tbaa !7
  %arrayidx14 = getelementptr inbounds double, double* %avec, i64 3
  %11 = load double, double* %arrayidx14, align 8, !tbaa !7
  %neg15 = fneg double %10
  %12 = tail call double @llvm.fmuladd.f64(double %neg15, double %11, double %9)
  %arrayidx17 = getelementptr inbounds [5 x double], [5 x double]* %ablock, i64 4, i64 0
  %13 = load double, double* %arrayidx17, align 8, !tbaa !7
  %arrayidx18 = getelementptr inbounds double, double* %avec, i64 4
  %14 = load double, double* %arrayidx18, align 8, !tbaa !7
  %neg19 = fneg double %13
  %15 = tail call double @llvm.fmuladd.f64(double %neg19, double %14, double %12)
  store double %15, double* %bvec, align 8, !tbaa !7
  %arrayidx21 = getelementptr inbounds double, double* %bvec, i64 1
  %16 = load double, double* %arrayidx21, align 8, !tbaa !7
  %arrayidx23 = getelementptr inbounds [5 x double], [5 x double]* %ablock, i64 0, i64 1
  %17 = load double, double* %arrayidx23, align 8, !tbaa !7
  %18 = load double, double* %avec, align 8, !tbaa !7
  %neg25 = fneg double %17
  %19 = tail call double @llvm.fmuladd.f64(double %neg25, double %18, double %16)
  %arrayidx27 = getelementptr inbounds [5 x double], [5 x double]* %ablock, i64 1, i64 1
  %20 = load double, double* %arrayidx27, align 8, !tbaa !7
  %21 = load double, double* %arrayidx6, align 8, !tbaa !7
  %neg29 = fneg double %20
  %22 = tail call double @llvm.fmuladd.f64(double %neg29, double %21, double %19)
  %arrayidx31 = getelementptr inbounds [5 x double], [5 x double]* %ablock, i64 2, i64 1
  %23 = load double, double* %arrayidx31, align 8, !tbaa !7
  %24 = load double, double* %arrayidx10, align 8, !tbaa !7
  %neg33 = fneg double %23
  %25 = tail call double @llvm.fmuladd.f64(double %neg33, double %24, double %22)
  %arrayidx35 = getelementptr inbounds [5 x double], [5 x double]* %ablock, i64 3, i64 1
  %26 = load double, double* %arrayidx35, align 8, !tbaa !7
  %27 = load double, double* %arrayidx14, align 8, !tbaa !7
  %neg37 = fneg double %26
  %28 = tail call double @llvm.fmuladd.f64(double %neg37, double %27, double %25)
  %arrayidx39 = getelementptr inbounds [5 x double], [5 x double]* %ablock, i64 4, i64 1
  %29 = load double, double* %arrayidx39, align 8, !tbaa !7
  %30 = load double, double* %arrayidx18, align 8, !tbaa !7
  %neg41 = fneg double %29
  %31 = tail call double @llvm.fmuladd.f64(double %neg41, double %30, double %28)
  store double %31, double* %arrayidx21, align 8, !tbaa !7
  %arrayidx43 = getelementptr inbounds double, double* %bvec, i64 2
  %32 = load double, double* %arrayidx43, align 8, !tbaa !7
  %arrayidx45 = getelementptr inbounds [5 x double], [5 x double]* %ablock, i64 0, i64 2
  %33 = load double, double* %arrayidx45, align 8, !tbaa !7
  %34 = load double, double* %avec, align 8, !tbaa !7
  %neg47 = fneg double %33
  %35 = tail call double @llvm.fmuladd.f64(double %neg47, double %34, double %32)
  %arrayidx49 = getelementptr inbounds [5 x double], [5 x double]* %ablock, i64 1, i64 2
  %36 = load double, double* %arrayidx49, align 8, !tbaa !7
  %37 = load double, double* %arrayidx6, align 8, !tbaa !7
  %neg51 = fneg double %36
  %38 = tail call double @llvm.fmuladd.f64(double %neg51, double %37, double %35)
  %arrayidx53 = getelementptr inbounds [5 x double], [5 x double]* %ablock, i64 2, i64 2
  %39 = load double, double* %arrayidx53, align 8, !tbaa !7
  %40 = load double, double* %arrayidx10, align 8, !tbaa !7
  %neg55 = fneg double %39
  %41 = tail call double @llvm.fmuladd.f64(double %neg55, double %40, double %38)
  %arrayidx57 = getelementptr inbounds [5 x double], [5 x double]* %ablock, i64 3, i64 2
  %42 = load double, double* %arrayidx57, align 8, !tbaa !7
  %43 = load double, double* %arrayidx14, align 8, !tbaa !7
  %neg59 = fneg double %42
  %44 = tail call double @llvm.fmuladd.f64(double %neg59, double %43, double %41)
  %arrayidx61 = getelementptr inbounds [5 x double], [5 x double]* %ablock, i64 4, i64 2
  %45 = load double, double* %arrayidx61, align 8, !tbaa !7
  %46 = load double, double* %arrayidx18, align 8, !tbaa !7
  %neg63 = fneg double %45
  %47 = tail call double @llvm.fmuladd.f64(double %neg63, double %46, double %44)
  store double %47, double* %arrayidx43, align 8, !tbaa !7
  %arrayidx65 = getelementptr inbounds double, double* %bvec, i64 3
  %48 = load double, double* %arrayidx65, align 8, !tbaa !7
  %arrayidx67 = getelementptr inbounds [5 x double], [5 x double]* %ablock, i64 0, i64 3
  %49 = load double, double* %arrayidx67, align 8, !tbaa !7
  %50 = load double, double* %avec, align 8, !tbaa !7
  %neg69 = fneg double %49
  %51 = tail call double @llvm.fmuladd.f64(double %neg69, double %50, double %48)
  %arrayidx71 = getelementptr inbounds [5 x double], [5 x double]* %ablock, i64 1, i64 3
  %52 = load double, double* %arrayidx71, align 8, !tbaa !7
  %53 = load double, double* %arrayidx6, align 8, !tbaa !7
  %neg73 = fneg double %52
  %54 = tail call double @llvm.fmuladd.f64(double %neg73, double %53, double %51)
  %arrayidx75 = getelementptr inbounds [5 x double], [5 x double]* %ablock, i64 2, i64 3
  %55 = load double, double* %arrayidx75, align 8, !tbaa !7
  %56 = load double, double* %arrayidx10, align 8, !tbaa !7
  %neg77 = fneg double %55
  %57 = tail call double @llvm.fmuladd.f64(double %neg77, double %56, double %54)
  %arrayidx79 = getelementptr inbounds [5 x double], [5 x double]* %ablock, i64 3, i64 3
  %58 = load double, double* %arrayidx79, align 8, !tbaa !7
  %59 = load double, double* %arrayidx14, align 8, !tbaa !7
  %neg81 = fneg double %58
  %60 = tail call double @llvm.fmuladd.f64(double %neg81, double %59, double %57)
  %arrayidx83 = getelementptr inbounds [5 x double], [5 x double]* %ablock, i64 4, i64 3
  %61 = load double, double* %arrayidx83, align 8, !tbaa !7
  %62 = load double, double* %arrayidx18, align 8, !tbaa !7
  %neg85 = fneg double %61
  %63 = tail call double @llvm.fmuladd.f64(double %neg85, double %62, double %60)
  store double %63, double* %arrayidx65, align 8, !tbaa !7
  %arrayidx87 = getelementptr inbounds double, double* %bvec, i64 4
  %64 = load double, double* %arrayidx87, align 8, !tbaa !7
  %arrayidx89 = getelementptr inbounds [5 x double], [5 x double]* %ablock, i64 0, i64 4
  %65 = load double, double* %arrayidx89, align 8, !tbaa !7
  %66 = load double, double* %avec, align 8, !tbaa !7
  %neg91 = fneg double %65
  %67 = tail call double @llvm.fmuladd.f64(double %neg91, double %66, double %64)
  %arrayidx93 = getelementptr inbounds [5 x double], [5 x double]* %ablock, i64 1, i64 4
  %68 = load double, double* %arrayidx93, align 8, !tbaa !7
  %69 = load double, double* %arrayidx6, align 8, !tbaa !7
  %neg95 = fneg double %68
  %70 = tail call double @llvm.fmuladd.f64(double %neg95, double %69, double %67)
  %arrayidx97 = getelementptr inbounds [5 x double], [5 x double]* %ablock, i64 2, i64 4
  %71 = load double, double* %arrayidx97, align 8, !tbaa !7
  %72 = load double, double* %arrayidx10, align 8, !tbaa !7
  %neg99 = fneg double %71
  %73 = tail call double @llvm.fmuladd.f64(double %neg99, double %72, double %70)
  %arrayidx101 = getelementptr inbounds [5 x double], [5 x double]* %ablock, i64 3, i64 4
  %74 = load double, double* %arrayidx101, align 8, !tbaa !7
  %75 = load double, double* %arrayidx14, align 8, !tbaa !7
  %neg103 = fneg double %74
  %76 = tail call double @llvm.fmuladd.f64(double %neg103, double %75, double %73)
  %arrayidx105 = getelementptr inbounds [5 x double], [5 x double]* %ablock, i64 4, i64 4
  %77 = load double, double* %arrayidx105, align 8, !tbaa !7
  %78 = load double, double* %arrayidx18, align 8, !tbaa !7
  %neg107 = fneg double %77
  %79 = tail call double @llvm.fmuladd.f64(double %neg107, double %78, double %76)
  store double %79, double* %arrayidx87, align 8, !tbaa !7
  ret void
}

; Function Attrs: nofree norecurse nounwind uwtable
define dso_local void @p_matmul_sub([5 x double]* readonly %ablock, [5 x double]* readonly %bblock, [5 x double]* %cblock) local_unnamed_addr #4 {
entry:
  %arrayidx1 = getelementptr inbounds [5 x double], [5 x double]* %cblock, i64 0, i64 0
  %0 = load double, double* %arrayidx1, align 8, !tbaa !7
  %arrayidx3 = getelementptr inbounds [5 x double], [5 x double]* %ablock, i64 0, i64 0
  %1 = load double, double* %arrayidx3, align 8, !tbaa !7
  %arrayidx5 = getelementptr inbounds [5 x double], [5 x double]* %bblock, i64 0, i64 0
  %2 = load double, double* %arrayidx5, align 8, !tbaa !7
  %neg = fneg double %1
  %3 = tail call double @llvm.fmuladd.f64(double %neg, double %2, double %0)
  %arrayidx7 = getelementptr inbounds [5 x double], [5 x double]* %ablock, i64 1, i64 0
  %4 = load double, double* %arrayidx7, align 8, !tbaa !7
  %arrayidx9 = getelementptr inbounds [5 x double], [5 x double]* %bblock, i64 0, i64 1
  %5 = load double, double* %arrayidx9, align 8, !tbaa !7
  %neg10 = fneg double %4
  %6 = tail call double @llvm.fmuladd.f64(double %neg10, double %5, double %3)
  %arrayidx12 = getelementptr inbounds [5 x double], [5 x double]* %ablock, i64 2, i64 0
  %7 = load double, double* %arrayidx12, align 8, !tbaa !7
  %arrayidx14 = getelementptr inbounds [5 x double], [5 x double]* %bblock, i64 0, i64 2
  %8 = load double, double* %arrayidx14, align 8, !tbaa !7
  %neg15 = fneg double %7
  %9 = tail call double @llvm.fmuladd.f64(double %neg15, double %8, double %6)
  %arrayidx17 = getelementptr inbounds [5 x double], [5 x double]* %ablock, i64 3, i64 0
  %10 = load double, double* %arrayidx17, align 8, !tbaa !7
  %arrayidx19 = getelementptr inbounds [5 x double], [5 x double]* %bblock, i64 0, i64 3
  %11 = load double, double* %arrayidx19, align 8, !tbaa !7
  %neg20 = fneg double %10
  %12 = tail call double @llvm.fmuladd.f64(double %neg20, double %11, double %9)
  %arrayidx22 = getelementptr inbounds [5 x double], [5 x double]* %ablock, i64 4, i64 0
  %13 = load double, double* %arrayidx22, align 8, !tbaa !7
  %arrayidx24 = getelementptr inbounds [5 x double], [5 x double]* %bblock, i64 0, i64 4
  %14 = load double, double* %arrayidx24, align 8, !tbaa !7
  %neg25 = fneg double %13
  %15 = tail call double @llvm.fmuladd.f64(double %neg25, double %14, double %12)
  store double %15, double* %arrayidx1, align 8, !tbaa !7
  %arrayidx29 = getelementptr inbounds [5 x double], [5 x double]* %cblock, i64 0, i64 1
  %16 = load double, double* %arrayidx29, align 8, !tbaa !7
  %arrayidx31 = getelementptr inbounds [5 x double], [5 x double]* %ablock, i64 0, i64 1
  %17 = load double, double* %arrayidx31, align 8, !tbaa !7
  %18 = load double, double* %arrayidx5, align 8, !tbaa !7
  %neg34 = fneg double %17
  %19 = tail call double @llvm.fmuladd.f64(double %neg34, double %18, double %16)
  %arrayidx36 = getelementptr inbounds [5 x double], [5 x double]* %ablock, i64 1, i64 1
  %20 = load double, double* %arrayidx36, align 8, !tbaa !7
  %21 = load double, double* %arrayidx9, align 8, !tbaa !7
  %neg39 = fneg double %20
  %22 = tail call double @llvm.fmuladd.f64(double %neg39, double %21, double %19)
  %arrayidx41 = getelementptr inbounds [5 x double], [5 x double]* %ablock, i64 2, i64 1
  %23 = load double, double* %arrayidx41, align 8, !tbaa !7
  %24 = load double, double* %arrayidx14, align 8, !tbaa !7
  %neg44 = fneg double %23
  %25 = tail call double @llvm.fmuladd.f64(double %neg44, double %24, double %22)
  %arrayidx46 = getelementptr inbounds [5 x double], [5 x double]* %ablock, i64 3, i64 1
  %26 = load double, double* %arrayidx46, align 8, !tbaa !7
  %27 = load double, double* %arrayidx19, align 8, !tbaa !7
  %neg49 = fneg double %26
  %28 = tail call double @llvm.fmuladd.f64(double %neg49, double %27, double %25)
  %arrayidx51 = getelementptr inbounds [5 x double], [5 x double]* %ablock, i64 4, i64 1
  %29 = load double, double* %arrayidx51, align 8, !tbaa !7
  %30 = load double, double* %arrayidx24, align 8, !tbaa !7
  %neg54 = fneg double %29
  %31 = tail call double @llvm.fmuladd.f64(double %neg54, double %30, double %28)
  store double %31, double* %arrayidx29, align 8, !tbaa !7
  %arrayidx58 = getelementptr inbounds [5 x double], [5 x double]* %cblock, i64 0, i64 2
  %32 = load double, double* %arrayidx58, align 8, !tbaa !7
  %arrayidx60 = getelementptr inbounds [5 x double], [5 x double]* %ablock, i64 0, i64 2
  %33 = load double, double* %arrayidx60, align 8, !tbaa !7
  %34 = load double, double* %arrayidx5, align 8, !tbaa !7
  %neg63 = fneg double %33
  %35 = tail call double @llvm.fmuladd.f64(double %neg63, double %34, double %32)
  %arrayidx65 = getelementptr inbounds [5 x double], [5 x double]* %ablock, i64 1, i64 2
  %36 = load double, double* %arrayidx65, align 8, !tbaa !7
  %37 = load double, double* %arrayidx9, align 8, !tbaa !7
  %neg68 = fneg double %36
  %38 = tail call double @llvm.fmuladd.f64(double %neg68, double %37, double %35)
  %arrayidx70 = getelementptr inbounds [5 x double], [5 x double]* %ablock, i64 2, i64 2
  %39 = load double, double* %arrayidx70, align 8, !tbaa !7
  %40 = load double, double* %arrayidx14, align 8, !tbaa !7
  %neg73 = fneg double %39
  %41 = tail call double @llvm.fmuladd.f64(double %neg73, double %40, double %38)
  %arrayidx75 = getelementptr inbounds [5 x double], [5 x double]* %ablock, i64 3, i64 2
  %42 = load double, double* %arrayidx75, align 8, !tbaa !7
  %43 = load double, double* %arrayidx19, align 8, !tbaa !7
  %neg78 = fneg double %42
  %44 = tail call double @llvm.fmuladd.f64(double %neg78, double %43, double %41)
  %arrayidx80 = getelementptr inbounds [5 x double], [5 x double]* %ablock, i64 4, i64 2
  %45 = load double, double* %arrayidx80, align 8, !tbaa !7
  %46 = load double, double* %arrayidx24, align 8, !tbaa !7
  %neg83 = fneg double %45
  %47 = tail call double @llvm.fmuladd.f64(double %neg83, double %46, double %44)
  store double %47, double* %arrayidx58, align 8, !tbaa !7
  %arrayidx87 = getelementptr inbounds [5 x double], [5 x double]* %cblock, i64 0, i64 3
  %48 = load double, double* %arrayidx87, align 8, !tbaa !7
  %arrayidx89 = getelementptr inbounds [5 x double], [5 x double]* %ablock, i64 0, i64 3
  %49 = load double, double* %arrayidx89, align 8, !tbaa !7
  %50 = load double, double* %arrayidx5, align 8, !tbaa !7
  %neg92 = fneg double %49
  %51 = tail call double @llvm.fmuladd.f64(double %neg92, double %50, double %48)
  %arrayidx94 = getelementptr inbounds [5 x double], [5 x double]* %ablock, i64 1, i64 3
  %52 = load double, double* %arrayidx94, align 8, !tbaa !7
  %53 = load double, double* %arrayidx9, align 8, !tbaa !7
  %neg97 = fneg double %52
  %54 = tail call double @llvm.fmuladd.f64(double %neg97, double %53, double %51)
  %arrayidx99 = getelementptr inbounds [5 x double], [5 x double]* %ablock, i64 2, i64 3
  %55 = load double, double* %arrayidx99, align 8, !tbaa !7
  %56 = load double, double* %arrayidx14, align 8, !tbaa !7
  %neg102 = fneg double %55
  %57 = tail call double @llvm.fmuladd.f64(double %neg102, double %56, double %54)
  %arrayidx104 = getelementptr inbounds [5 x double], [5 x double]* %ablock, i64 3, i64 3
  %58 = load double, double* %arrayidx104, align 8, !tbaa !7
  %59 = load double, double* %arrayidx19, align 8, !tbaa !7
  %neg107 = fneg double %58
  %60 = tail call double @llvm.fmuladd.f64(double %neg107, double %59, double %57)
  %arrayidx109 = getelementptr inbounds [5 x double], [5 x double]* %ablock, i64 4, i64 3
  %61 = load double, double* %arrayidx109, align 8, !tbaa !7
  %62 = load double, double* %arrayidx24, align 8, !tbaa !7
  %neg112 = fneg double %61
  %63 = tail call double @llvm.fmuladd.f64(double %neg112, double %62, double %60)
  store double %63, double* %arrayidx87, align 8, !tbaa !7
  %arrayidx116 = getelementptr inbounds [5 x double], [5 x double]* %cblock, i64 0, i64 4
  %64 = load double, double* %arrayidx116, align 8, !tbaa !7
  %arrayidx118 = getelementptr inbounds [5 x double], [5 x double]* %ablock, i64 0, i64 4
  %65 = load double, double* %arrayidx118, align 8, !tbaa !7
  %66 = load double, double* %arrayidx5, align 8, !tbaa !7
  %neg121 = fneg double %65
  %67 = tail call double @llvm.fmuladd.f64(double %neg121, double %66, double %64)
  %arrayidx123 = getelementptr inbounds [5 x double], [5 x double]* %ablock, i64 1, i64 4
  %68 = load double, double* %arrayidx123, align 8, !tbaa !7
  %69 = load double, double* %arrayidx9, align 8, !tbaa !7
  %neg126 = fneg double %68
  %70 = tail call double @llvm.fmuladd.f64(double %neg126, double %69, double %67)
  %arrayidx128 = getelementptr inbounds [5 x double], [5 x double]* %ablock, i64 2, i64 4
  %71 = load double, double* %arrayidx128, align 8, !tbaa !7
  %72 = load double, double* %arrayidx14, align 8, !tbaa !7
  %neg131 = fneg double %71
  %73 = tail call double @llvm.fmuladd.f64(double %neg131, double %72, double %70)
  %arrayidx133 = getelementptr inbounds [5 x double], [5 x double]* %ablock, i64 3, i64 4
  %74 = load double, double* %arrayidx133, align 8, !tbaa !7
  %75 = load double, double* %arrayidx19, align 8, !tbaa !7
  %neg136 = fneg double %74
  %76 = tail call double @llvm.fmuladd.f64(double %neg136, double %75, double %73)
  %arrayidx138 = getelementptr inbounds [5 x double], [5 x double]* %ablock, i64 4, i64 4
  %77 = load double, double* %arrayidx138, align 8, !tbaa !7
  %78 = load double, double* %arrayidx24, align 8, !tbaa !7
  %neg141 = fneg double %77
  %79 = tail call double @llvm.fmuladd.f64(double %neg141, double %78, double %76)
  store double %79, double* %arrayidx116, align 8, !tbaa !7
  %arrayidx145 = getelementptr inbounds [5 x double], [5 x double]* %cblock, i64 1, i64 0
  %80 = load double, double* %arrayidx145, align 8, !tbaa !7
  %81 = load double, double* %arrayidx3, align 8, !tbaa !7
  %arrayidx149 = getelementptr inbounds [5 x double], [5 x double]* %bblock, i64 1, i64 0
  %82 = load double, double* %arrayidx149, align 8, !tbaa !7
  %neg150 = fneg double %81
  %83 = tail call double @llvm.fmuladd.f64(double %neg150, double %82, double %80)
  %84 = load double, double* %arrayidx7, align 8, !tbaa !7
  %arrayidx154 = getelementptr inbounds [5 x double], [5 x double]* %bblock, i64 1, i64 1
  %85 = load double, double* %arrayidx154, align 8, !tbaa !7
  %neg155 = fneg double %84
  %86 = tail call double @llvm.fmuladd.f64(double %neg155, double %85, double %83)
  %87 = load double, double* %arrayidx12, align 8, !tbaa !7
  %arrayidx159 = getelementptr inbounds [5 x double], [5 x double]* %bblock, i64 1, i64 2
  %88 = load double, double* %arrayidx159, align 8, !tbaa !7
  %neg160 = fneg double %87
  %89 = tail call double @llvm.fmuladd.f64(double %neg160, double %88, double %86)
  %90 = load double, double* %arrayidx17, align 8, !tbaa !7
  %arrayidx164 = getelementptr inbounds [5 x double], [5 x double]* %bblock, i64 1, i64 3
  %91 = load double, double* %arrayidx164, align 8, !tbaa !7
  %neg165 = fneg double %90
  %92 = tail call double @llvm.fmuladd.f64(double %neg165, double %91, double %89)
  %93 = load double, double* %arrayidx22, align 8, !tbaa !7
  %arrayidx169 = getelementptr inbounds [5 x double], [5 x double]* %bblock, i64 1, i64 4
  %94 = load double, double* %arrayidx169, align 8, !tbaa !7
  %neg170 = fneg double %93
  %95 = tail call double @llvm.fmuladd.f64(double %neg170, double %94, double %92)
  store double %95, double* %arrayidx145, align 8, !tbaa !7
  %arrayidx174 = getelementptr inbounds [5 x double], [5 x double]* %cblock, i64 1, i64 1
  %96 = load double, double* %arrayidx174, align 8, !tbaa !7
  %97 = load double, double* %arrayidx31, align 8, !tbaa !7
  %98 = load double, double* %arrayidx149, align 8, !tbaa !7
  %neg179 = fneg double %97
  %99 = tail call double @llvm.fmuladd.f64(double %neg179, double %98, double %96)
  %100 = load double, double* %arrayidx36, align 8, !tbaa !7
  %101 = load double, double* %arrayidx154, align 8, !tbaa !7
  %neg184 = fneg double %100
  %102 = tail call double @llvm.fmuladd.f64(double %neg184, double %101, double %99)
  %103 = load double, double* %arrayidx41, align 8, !tbaa !7
  %104 = load double, double* %arrayidx159, align 8, !tbaa !7
  %neg189 = fneg double %103
  %105 = tail call double @llvm.fmuladd.f64(double %neg189, double %104, double %102)
  %106 = load double, double* %arrayidx46, align 8, !tbaa !7
  %107 = load double, double* %arrayidx164, align 8, !tbaa !7
  %neg194 = fneg double %106
  %108 = tail call double @llvm.fmuladd.f64(double %neg194, double %107, double %105)
  %109 = load double, double* %arrayidx51, align 8, !tbaa !7
  %110 = load double, double* %arrayidx169, align 8, !tbaa !7
  %neg199 = fneg double %109
  %111 = tail call double @llvm.fmuladd.f64(double %neg199, double %110, double %108)
  store double %111, double* %arrayidx174, align 8, !tbaa !7
  %arrayidx203 = getelementptr inbounds [5 x double], [5 x double]* %cblock, i64 1, i64 2
  %112 = load double, double* %arrayidx203, align 8, !tbaa !7
  %113 = load double, double* %arrayidx60, align 8, !tbaa !7
  %114 = load double, double* %arrayidx149, align 8, !tbaa !7
  %neg208 = fneg double %113
  %115 = tail call double @llvm.fmuladd.f64(double %neg208, double %114, double %112)
  %116 = load double, double* %arrayidx65, align 8, !tbaa !7
  %117 = load double, double* %arrayidx154, align 8, !tbaa !7
  %neg213 = fneg double %116
  %118 = tail call double @llvm.fmuladd.f64(double %neg213, double %117, double %115)
  %119 = load double, double* %arrayidx70, align 8, !tbaa !7
  %120 = load double, double* %arrayidx159, align 8, !tbaa !7
  %neg218 = fneg double %119
  %121 = tail call double @llvm.fmuladd.f64(double %neg218, double %120, double %118)
  %122 = load double, double* %arrayidx75, align 8, !tbaa !7
  %123 = load double, double* %arrayidx164, align 8, !tbaa !7
  %neg223 = fneg double %122
  %124 = tail call double @llvm.fmuladd.f64(double %neg223, double %123, double %121)
  %125 = load double, double* %arrayidx80, align 8, !tbaa !7
  %126 = load double, double* %arrayidx169, align 8, !tbaa !7
  %neg228 = fneg double %125
  %127 = tail call double @llvm.fmuladd.f64(double %neg228, double %126, double %124)
  store double %127, double* %arrayidx203, align 8, !tbaa !7
  %arrayidx232 = getelementptr inbounds [5 x double], [5 x double]* %cblock, i64 1, i64 3
  %128 = load double, double* %arrayidx232, align 8, !tbaa !7
  %129 = load double, double* %arrayidx89, align 8, !tbaa !7
  %130 = load double, double* %arrayidx149, align 8, !tbaa !7
  %neg237 = fneg double %129
  %131 = tail call double @llvm.fmuladd.f64(double %neg237, double %130, double %128)
  %132 = load double, double* %arrayidx94, align 8, !tbaa !7
  %133 = load double, double* %arrayidx154, align 8, !tbaa !7
  %neg242 = fneg double %132
  %134 = tail call double @llvm.fmuladd.f64(double %neg242, double %133, double %131)
  %135 = load double, double* %arrayidx99, align 8, !tbaa !7
  %136 = load double, double* %arrayidx159, align 8, !tbaa !7
  %neg247 = fneg double %135
  %137 = tail call double @llvm.fmuladd.f64(double %neg247, double %136, double %134)
  %138 = load double, double* %arrayidx104, align 8, !tbaa !7
  %139 = load double, double* %arrayidx164, align 8, !tbaa !7
  %neg252 = fneg double %138
  %140 = tail call double @llvm.fmuladd.f64(double %neg252, double %139, double %137)
  %141 = load double, double* %arrayidx109, align 8, !tbaa !7
  %142 = load double, double* %arrayidx169, align 8, !tbaa !7
  %neg257 = fneg double %141
  %143 = tail call double @llvm.fmuladd.f64(double %neg257, double %142, double %140)
  store double %143, double* %arrayidx232, align 8, !tbaa !7
  %arrayidx261 = getelementptr inbounds [5 x double], [5 x double]* %cblock, i64 1, i64 4
  %144 = load double, double* %arrayidx261, align 8, !tbaa !7
  %145 = load double, double* %arrayidx118, align 8, !tbaa !7
  %146 = load double, double* %arrayidx149, align 8, !tbaa !7
  %neg266 = fneg double %145
  %147 = tail call double @llvm.fmuladd.f64(double %neg266, double %146, double %144)
  %148 = load double, double* %arrayidx123, align 8, !tbaa !7
  %149 = load double, double* %arrayidx154, align 8, !tbaa !7
  %neg271 = fneg double %148
  %150 = tail call double @llvm.fmuladd.f64(double %neg271, double %149, double %147)
  %151 = load double, double* %arrayidx128, align 8, !tbaa !7
  %152 = load double, double* %arrayidx159, align 8, !tbaa !7
  %neg276 = fneg double %151
  %153 = tail call double @llvm.fmuladd.f64(double %neg276, double %152, double %150)
  %154 = load double, double* %arrayidx133, align 8, !tbaa !7
  %155 = load double, double* %arrayidx164, align 8, !tbaa !7
  %neg281 = fneg double %154
  %156 = tail call double @llvm.fmuladd.f64(double %neg281, double %155, double %153)
  %157 = load double, double* %arrayidx138, align 8, !tbaa !7
  %158 = load double, double* %arrayidx169, align 8, !tbaa !7
  %neg286 = fneg double %157
  %159 = tail call double @llvm.fmuladd.f64(double %neg286, double %158, double %156)
  store double %159, double* %arrayidx261, align 8, !tbaa !7
  %arrayidx290 = getelementptr inbounds [5 x double], [5 x double]* %cblock, i64 2, i64 0
  %160 = load double, double* %arrayidx290, align 8, !tbaa !7
  %161 = load double, double* %arrayidx3, align 8, !tbaa !7
  %arrayidx294 = getelementptr inbounds [5 x double], [5 x double]* %bblock, i64 2, i64 0
  %162 = load double, double* %arrayidx294, align 8, !tbaa !7
  %neg295 = fneg double %161
  %163 = tail call double @llvm.fmuladd.f64(double %neg295, double %162, double %160)
  %164 = load double, double* %arrayidx7, align 8, !tbaa !7
  %arrayidx299 = getelementptr inbounds [5 x double], [5 x double]* %bblock, i64 2, i64 1
  %165 = load double, double* %arrayidx299, align 8, !tbaa !7
  %neg300 = fneg double %164
  %166 = tail call double @llvm.fmuladd.f64(double %neg300, double %165, double %163)
  %167 = load double, double* %arrayidx12, align 8, !tbaa !7
  %arrayidx304 = getelementptr inbounds [5 x double], [5 x double]* %bblock, i64 2, i64 2
  %168 = load double, double* %arrayidx304, align 8, !tbaa !7
  %neg305 = fneg double %167
  %169 = tail call double @llvm.fmuladd.f64(double %neg305, double %168, double %166)
  %170 = load double, double* %arrayidx17, align 8, !tbaa !7
  %arrayidx309 = getelementptr inbounds [5 x double], [5 x double]* %bblock, i64 2, i64 3
  %171 = load double, double* %arrayidx309, align 8, !tbaa !7
  %neg310 = fneg double %170
  %172 = tail call double @llvm.fmuladd.f64(double %neg310, double %171, double %169)
  %173 = load double, double* %arrayidx22, align 8, !tbaa !7
  %arrayidx314 = getelementptr inbounds [5 x double], [5 x double]* %bblock, i64 2, i64 4
  %174 = load double, double* %arrayidx314, align 8, !tbaa !7
  %neg315 = fneg double %173
  %175 = tail call double @llvm.fmuladd.f64(double %neg315, double %174, double %172)
  store double %175, double* %arrayidx290, align 8, !tbaa !7
  %arrayidx319 = getelementptr inbounds [5 x double], [5 x double]* %cblock, i64 2, i64 1
  %176 = load double, double* %arrayidx319, align 8, !tbaa !7
  %177 = load double, double* %arrayidx31, align 8, !tbaa !7
  %178 = load double, double* %arrayidx294, align 8, !tbaa !7
  %neg324 = fneg double %177
  %179 = tail call double @llvm.fmuladd.f64(double %neg324, double %178, double %176)
  %180 = load double, double* %arrayidx36, align 8, !tbaa !7
  %181 = load double, double* %arrayidx299, align 8, !tbaa !7
  %neg329 = fneg double %180
  %182 = tail call double @llvm.fmuladd.f64(double %neg329, double %181, double %179)
  %183 = load double, double* %arrayidx41, align 8, !tbaa !7
  %184 = load double, double* %arrayidx304, align 8, !tbaa !7
  %neg334 = fneg double %183
  %185 = tail call double @llvm.fmuladd.f64(double %neg334, double %184, double %182)
  %186 = load double, double* %arrayidx46, align 8, !tbaa !7
  %187 = load double, double* %arrayidx309, align 8, !tbaa !7
  %neg339 = fneg double %186
  %188 = tail call double @llvm.fmuladd.f64(double %neg339, double %187, double %185)
  %189 = load double, double* %arrayidx51, align 8, !tbaa !7
  %190 = load double, double* %arrayidx314, align 8, !tbaa !7
  %neg344 = fneg double %189
  %191 = tail call double @llvm.fmuladd.f64(double %neg344, double %190, double %188)
  store double %191, double* %arrayidx319, align 8, !tbaa !7
  %arrayidx348 = getelementptr inbounds [5 x double], [5 x double]* %cblock, i64 2, i64 2
  %192 = load double, double* %arrayidx348, align 8, !tbaa !7
  %193 = load double, double* %arrayidx60, align 8, !tbaa !7
  %194 = load double, double* %arrayidx294, align 8, !tbaa !7
  %neg353 = fneg double %193
  %195 = tail call double @llvm.fmuladd.f64(double %neg353, double %194, double %192)
  %196 = load double, double* %arrayidx65, align 8, !tbaa !7
  %197 = load double, double* %arrayidx299, align 8, !tbaa !7
  %neg358 = fneg double %196
  %198 = tail call double @llvm.fmuladd.f64(double %neg358, double %197, double %195)
  %199 = load double, double* %arrayidx70, align 8, !tbaa !7
  %200 = load double, double* %arrayidx304, align 8, !tbaa !7
  %neg363 = fneg double %199
  %201 = tail call double @llvm.fmuladd.f64(double %neg363, double %200, double %198)
  %202 = load double, double* %arrayidx75, align 8, !tbaa !7
  %203 = load double, double* %arrayidx309, align 8, !tbaa !7
  %neg368 = fneg double %202
  %204 = tail call double @llvm.fmuladd.f64(double %neg368, double %203, double %201)
  %205 = load double, double* %arrayidx80, align 8, !tbaa !7
  %206 = load double, double* %arrayidx314, align 8, !tbaa !7
  %neg373 = fneg double %205
  %207 = tail call double @llvm.fmuladd.f64(double %neg373, double %206, double %204)
  store double %207, double* %arrayidx348, align 8, !tbaa !7
  %arrayidx377 = getelementptr inbounds [5 x double], [5 x double]* %cblock, i64 2, i64 3
  %208 = load double, double* %arrayidx377, align 8, !tbaa !7
  %209 = load double, double* %arrayidx89, align 8, !tbaa !7
  %210 = load double, double* %arrayidx294, align 8, !tbaa !7
  %neg382 = fneg double %209
  %211 = tail call double @llvm.fmuladd.f64(double %neg382, double %210, double %208)
  %212 = load double, double* %arrayidx94, align 8, !tbaa !7
  %213 = load double, double* %arrayidx299, align 8, !tbaa !7
  %neg387 = fneg double %212
  %214 = tail call double @llvm.fmuladd.f64(double %neg387, double %213, double %211)
  %215 = load double, double* %arrayidx99, align 8, !tbaa !7
  %216 = load double, double* %arrayidx304, align 8, !tbaa !7
  %neg392 = fneg double %215
  %217 = tail call double @llvm.fmuladd.f64(double %neg392, double %216, double %214)
  %218 = load double, double* %arrayidx104, align 8, !tbaa !7
  %219 = load double, double* %arrayidx309, align 8, !tbaa !7
  %neg397 = fneg double %218
  %220 = tail call double @llvm.fmuladd.f64(double %neg397, double %219, double %217)
  %221 = load double, double* %arrayidx109, align 8, !tbaa !7
  %222 = load double, double* %arrayidx314, align 8, !tbaa !7
  %neg402 = fneg double %221
  %223 = tail call double @llvm.fmuladd.f64(double %neg402, double %222, double %220)
  store double %223, double* %arrayidx377, align 8, !tbaa !7
  %arrayidx406 = getelementptr inbounds [5 x double], [5 x double]* %cblock, i64 2, i64 4
  %224 = load double, double* %arrayidx406, align 8, !tbaa !7
  %225 = load double, double* %arrayidx118, align 8, !tbaa !7
  %226 = load double, double* %arrayidx294, align 8, !tbaa !7
  %neg411 = fneg double %225
  %227 = tail call double @llvm.fmuladd.f64(double %neg411, double %226, double %224)
  %228 = load double, double* %arrayidx123, align 8, !tbaa !7
  %229 = load double, double* %arrayidx299, align 8, !tbaa !7
  %neg416 = fneg double %228
  %230 = tail call double @llvm.fmuladd.f64(double %neg416, double %229, double %227)
  %231 = load double, double* %arrayidx128, align 8, !tbaa !7
  %232 = load double, double* %arrayidx304, align 8, !tbaa !7
  %neg421 = fneg double %231
  %233 = tail call double @llvm.fmuladd.f64(double %neg421, double %232, double %230)
  %234 = load double, double* %arrayidx133, align 8, !tbaa !7
  %235 = load double, double* %arrayidx309, align 8, !tbaa !7
  %neg426 = fneg double %234
  %236 = tail call double @llvm.fmuladd.f64(double %neg426, double %235, double %233)
  %237 = load double, double* %arrayidx138, align 8, !tbaa !7
  %238 = load double, double* %arrayidx314, align 8, !tbaa !7
  %neg431 = fneg double %237
  %239 = tail call double @llvm.fmuladd.f64(double %neg431, double %238, double %236)
  store double %239, double* %arrayidx406, align 8, !tbaa !7
  %arrayidx435 = getelementptr inbounds [5 x double], [5 x double]* %cblock, i64 3, i64 0
  %240 = load double, double* %arrayidx435, align 8, !tbaa !7
  %241 = load double, double* %arrayidx3, align 8, !tbaa !7
  %arrayidx439 = getelementptr inbounds [5 x double], [5 x double]* %bblock, i64 3, i64 0
  %242 = load double, double* %arrayidx439, align 8, !tbaa !7
  %neg440 = fneg double %241
  %243 = tail call double @llvm.fmuladd.f64(double %neg440, double %242, double %240)
  %244 = load double, double* %arrayidx7, align 8, !tbaa !7
  %arrayidx444 = getelementptr inbounds [5 x double], [5 x double]* %bblock, i64 3, i64 1
  %245 = load double, double* %arrayidx444, align 8, !tbaa !7
  %neg445 = fneg double %244
  %246 = tail call double @llvm.fmuladd.f64(double %neg445, double %245, double %243)
  %247 = load double, double* %arrayidx12, align 8, !tbaa !7
  %arrayidx449 = getelementptr inbounds [5 x double], [5 x double]* %bblock, i64 3, i64 2
  %248 = load double, double* %arrayidx449, align 8, !tbaa !7
  %neg450 = fneg double %247
  %249 = tail call double @llvm.fmuladd.f64(double %neg450, double %248, double %246)
  %250 = load double, double* %arrayidx17, align 8, !tbaa !7
  %arrayidx454 = getelementptr inbounds [5 x double], [5 x double]* %bblock, i64 3, i64 3
  %251 = load double, double* %arrayidx454, align 8, !tbaa !7
  %neg455 = fneg double %250
  %252 = tail call double @llvm.fmuladd.f64(double %neg455, double %251, double %249)
  %253 = load double, double* %arrayidx22, align 8, !tbaa !7
  %arrayidx459 = getelementptr inbounds [5 x double], [5 x double]* %bblock, i64 3, i64 4
  %254 = load double, double* %arrayidx459, align 8, !tbaa !7
  %neg460 = fneg double %253
  %255 = tail call double @llvm.fmuladd.f64(double %neg460, double %254, double %252)
  store double %255, double* %arrayidx435, align 8, !tbaa !7
  %arrayidx464 = getelementptr inbounds [5 x double], [5 x double]* %cblock, i64 3, i64 1
  %256 = load double, double* %arrayidx464, align 8, !tbaa !7
  %257 = load double, double* %arrayidx31, align 8, !tbaa !7
  %258 = load double, double* %arrayidx439, align 8, !tbaa !7
  %neg469 = fneg double %257
  %259 = tail call double @llvm.fmuladd.f64(double %neg469, double %258, double %256)
  %260 = load double, double* %arrayidx36, align 8, !tbaa !7
  %261 = load double, double* %arrayidx444, align 8, !tbaa !7
  %neg474 = fneg double %260
  %262 = tail call double @llvm.fmuladd.f64(double %neg474, double %261, double %259)
  %263 = load double, double* %arrayidx41, align 8, !tbaa !7
  %264 = load double, double* %arrayidx449, align 8, !tbaa !7
  %neg479 = fneg double %263
  %265 = tail call double @llvm.fmuladd.f64(double %neg479, double %264, double %262)
  %266 = load double, double* %arrayidx46, align 8, !tbaa !7
  %267 = load double, double* %arrayidx454, align 8, !tbaa !7
  %neg484 = fneg double %266
  %268 = tail call double @llvm.fmuladd.f64(double %neg484, double %267, double %265)
  %269 = load double, double* %arrayidx51, align 8, !tbaa !7
  %270 = load double, double* %arrayidx459, align 8, !tbaa !7
  %neg489 = fneg double %269
  %271 = tail call double @llvm.fmuladd.f64(double %neg489, double %270, double %268)
  store double %271, double* %arrayidx464, align 8, !tbaa !7
  %arrayidx493 = getelementptr inbounds [5 x double], [5 x double]* %cblock, i64 3, i64 2
  %272 = load double, double* %arrayidx493, align 8, !tbaa !7
  %273 = load double, double* %arrayidx60, align 8, !tbaa !7
  %274 = load double, double* %arrayidx439, align 8, !tbaa !7
  %neg498 = fneg double %273
  %275 = tail call double @llvm.fmuladd.f64(double %neg498, double %274, double %272)
  %276 = load double, double* %arrayidx65, align 8, !tbaa !7
  %277 = load double, double* %arrayidx444, align 8, !tbaa !7
  %neg503 = fneg double %276
  %278 = tail call double @llvm.fmuladd.f64(double %neg503, double %277, double %275)
  %279 = load double, double* %arrayidx70, align 8, !tbaa !7
  %280 = load double, double* %arrayidx449, align 8, !tbaa !7
  %neg508 = fneg double %279
  %281 = tail call double @llvm.fmuladd.f64(double %neg508, double %280, double %278)
  %282 = load double, double* %arrayidx75, align 8, !tbaa !7
  %283 = load double, double* %arrayidx454, align 8, !tbaa !7
  %neg513 = fneg double %282
  %284 = tail call double @llvm.fmuladd.f64(double %neg513, double %283, double %281)
  %285 = load double, double* %arrayidx80, align 8, !tbaa !7
  %286 = load double, double* %arrayidx459, align 8, !tbaa !7
  %neg518 = fneg double %285
  %287 = tail call double @llvm.fmuladd.f64(double %neg518, double %286, double %284)
  store double %287, double* %arrayidx493, align 8, !tbaa !7
  %arrayidx522 = getelementptr inbounds [5 x double], [5 x double]* %cblock, i64 3, i64 3
  %288 = load double, double* %arrayidx522, align 8, !tbaa !7
  %289 = load double, double* %arrayidx89, align 8, !tbaa !7
  %290 = load double, double* %arrayidx439, align 8, !tbaa !7
  %neg527 = fneg double %289
  %291 = tail call double @llvm.fmuladd.f64(double %neg527, double %290, double %288)
  %292 = load double, double* %arrayidx94, align 8, !tbaa !7
  %293 = load double, double* %arrayidx444, align 8, !tbaa !7
  %neg532 = fneg double %292
  %294 = tail call double @llvm.fmuladd.f64(double %neg532, double %293, double %291)
  %295 = load double, double* %arrayidx99, align 8, !tbaa !7
  %296 = load double, double* %arrayidx449, align 8, !tbaa !7
  %neg537 = fneg double %295
  %297 = tail call double @llvm.fmuladd.f64(double %neg537, double %296, double %294)
  %298 = load double, double* %arrayidx104, align 8, !tbaa !7
  %299 = load double, double* %arrayidx454, align 8, !tbaa !7
  %neg542 = fneg double %298
  %300 = tail call double @llvm.fmuladd.f64(double %neg542, double %299, double %297)
  %301 = load double, double* %arrayidx109, align 8, !tbaa !7
  %302 = load double, double* %arrayidx459, align 8, !tbaa !7
  %neg547 = fneg double %301
  %303 = tail call double @llvm.fmuladd.f64(double %neg547, double %302, double %300)
  store double %303, double* %arrayidx522, align 8, !tbaa !7
  %arrayidx551 = getelementptr inbounds [5 x double], [5 x double]* %cblock, i64 3, i64 4
  %304 = load double, double* %arrayidx551, align 8, !tbaa !7
  %305 = load double, double* %arrayidx118, align 8, !tbaa !7
  %306 = load double, double* %arrayidx439, align 8, !tbaa !7
  %neg556 = fneg double %305
  %307 = tail call double @llvm.fmuladd.f64(double %neg556, double %306, double %304)
  %308 = load double, double* %arrayidx123, align 8, !tbaa !7
  %309 = load double, double* %arrayidx444, align 8, !tbaa !7
  %neg561 = fneg double %308
  %310 = tail call double @llvm.fmuladd.f64(double %neg561, double %309, double %307)
  %311 = load double, double* %arrayidx128, align 8, !tbaa !7
  %312 = load double, double* %arrayidx449, align 8, !tbaa !7
  %neg566 = fneg double %311
  %313 = tail call double @llvm.fmuladd.f64(double %neg566, double %312, double %310)
  %314 = load double, double* %arrayidx133, align 8, !tbaa !7
  %315 = load double, double* %arrayidx454, align 8, !tbaa !7
  %neg571 = fneg double %314
  %316 = tail call double @llvm.fmuladd.f64(double %neg571, double %315, double %313)
  %317 = load double, double* %arrayidx138, align 8, !tbaa !7
  %318 = load double, double* %arrayidx459, align 8, !tbaa !7
  %neg576 = fneg double %317
  %319 = tail call double @llvm.fmuladd.f64(double %neg576, double %318, double %316)
  store double %319, double* %arrayidx551, align 8, !tbaa !7
  %arrayidx580 = getelementptr inbounds [5 x double], [5 x double]* %cblock, i64 4, i64 0
  %320 = load double, double* %arrayidx580, align 8, !tbaa !7
  %321 = load double, double* %arrayidx3, align 8, !tbaa !7
  %arrayidx584 = getelementptr inbounds [5 x double], [5 x double]* %bblock, i64 4, i64 0
  %322 = load double, double* %arrayidx584, align 8, !tbaa !7
  %neg585 = fneg double %321
  %323 = tail call double @llvm.fmuladd.f64(double %neg585, double %322, double %320)
  %324 = load double, double* %arrayidx7, align 8, !tbaa !7
  %arrayidx589 = getelementptr inbounds [5 x double], [5 x double]* %bblock, i64 4, i64 1
  %325 = load double, double* %arrayidx589, align 8, !tbaa !7
  %neg590 = fneg double %324
  %326 = tail call double @llvm.fmuladd.f64(double %neg590, double %325, double %323)
  %327 = load double, double* %arrayidx12, align 8, !tbaa !7
  %arrayidx594 = getelementptr inbounds [5 x double], [5 x double]* %bblock, i64 4, i64 2
  %328 = load double, double* %arrayidx594, align 8, !tbaa !7
  %neg595 = fneg double %327
  %329 = tail call double @llvm.fmuladd.f64(double %neg595, double %328, double %326)
  %330 = load double, double* %arrayidx17, align 8, !tbaa !7
  %arrayidx599 = getelementptr inbounds [5 x double], [5 x double]* %bblock, i64 4, i64 3
  %331 = load double, double* %arrayidx599, align 8, !tbaa !7
  %neg600 = fneg double %330
  %332 = tail call double @llvm.fmuladd.f64(double %neg600, double %331, double %329)
  %333 = load double, double* %arrayidx22, align 8, !tbaa !7
  %arrayidx604 = getelementptr inbounds [5 x double], [5 x double]* %bblock, i64 4, i64 4
  %334 = load double, double* %arrayidx604, align 8, !tbaa !7
  %neg605 = fneg double %333
  %335 = tail call double @llvm.fmuladd.f64(double %neg605, double %334, double %332)
  store double %335, double* %arrayidx580, align 8, !tbaa !7
  %arrayidx609 = getelementptr inbounds [5 x double], [5 x double]* %cblock, i64 4, i64 1
  %336 = load double, double* %arrayidx609, align 8, !tbaa !7
  %337 = load double, double* %arrayidx31, align 8, !tbaa !7
  %338 = load double, double* %arrayidx584, align 8, !tbaa !7
  %neg614 = fneg double %337
  %339 = tail call double @llvm.fmuladd.f64(double %neg614, double %338, double %336)
  %340 = load double, double* %arrayidx36, align 8, !tbaa !7
  %341 = load double, double* %arrayidx589, align 8, !tbaa !7
  %neg619 = fneg double %340
  %342 = tail call double @llvm.fmuladd.f64(double %neg619, double %341, double %339)
  %343 = load double, double* %arrayidx41, align 8, !tbaa !7
  %344 = load double, double* %arrayidx594, align 8, !tbaa !7
  %neg624 = fneg double %343
  %345 = tail call double @llvm.fmuladd.f64(double %neg624, double %344, double %342)
  %346 = load double, double* %arrayidx46, align 8, !tbaa !7
  %347 = load double, double* %arrayidx599, align 8, !tbaa !7
  %neg629 = fneg double %346
  %348 = tail call double @llvm.fmuladd.f64(double %neg629, double %347, double %345)
  %349 = load double, double* %arrayidx51, align 8, !tbaa !7
  %350 = load double, double* %arrayidx604, align 8, !tbaa !7
  %neg634 = fneg double %349
  %351 = tail call double @llvm.fmuladd.f64(double %neg634, double %350, double %348)
  store double %351, double* %arrayidx609, align 8, !tbaa !7
  %arrayidx638 = getelementptr inbounds [5 x double], [5 x double]* %cblock, i64 4, i64 2
  %352 = load double, double* %arrayidx638, align 8, !tbaa !7
  %353 = load double, double* %arrayidx60, align 8, !tbaa !7
  %354 = load double, double* %arrayidx584, align 8, !tbaa !7
  %neg643 = fneg double %353
  %355 = tail call double @llvm.fmuladd.f64(double %neg643, double %354, double %352)
  %356 = load double, double* %arrayidx65, align 8, !tbaa !7
  %357 = load double, double* %arrayidx589, align 8, !tbaa !7
  %neg648 = fneg double %356
  %358 = tail call double @llvm.fmuladd.f64(double %neg648, double %357, double %355)
  %359 = load double, double* %arrayidx70, align 8, !tbaa !7
  %360 = load double, double* %arrayidx594, align 8, !tbaa !7
  %neg653 = fneg double %359
  %361 = tail call double @llvm.fmuladd.f64(double %neg653, double %360, double %358)
  %362 = load double, double* %arrayidx75, align 8, !tbaa !7
  %363 = load double, double* %arrayidx599, align 8, !tbaa !7
  %neg658 = fneg double %362
  %364 = tail call double @llvm.fmuladd.f64(double %neg658, double %363, double %361)
  %365 = load double, double* %arrayidx80, align 8, !tbaa !7
  %366 = load double, double* %arrayidx604, align 8, !tbaa !7
  %neg663 = fneg double %365
  %367 = tail call double @llvm.fmuladd.f64(double %neg663, double %366, double %364)
  store double %367, double* %arrayidx638, align 8, !tbaa !7
  %arrayidx667 = getelementptr inbounds [5 x double], [5 x double]* %cblock, i64 4, i64 3
  %368 = load double, double* %arrayidx667, align 8, !tbaa !7
  %369 = load double, double* %arrayidx89, align 8, !tbaa !7
  %370 = load double, double* %arrayidx584, align 8, !tbaa !7
  %neg672 = fneg double %369
  %371 = tail call double @llvm.fmuladd.f64(double %neg672, double %370, double %368)
  %372 = load double, double* %arrayidx94, align 8, !tbaa !7
  %373 = load double, double* %arrayidx589, align 8, !tbaa !7
  %neg677 = fneg double %372
  %374 = tail call double @llvm.fmuladd.f64(double %neg677, double %373, double %371)
  %375 = load double, double* %arrayidx99, align 8, !tbaa !7
  %376 = load double, double* %arrayidx594, align 8, !tbaa !7
  %neg682 = fneg double %375
